
./bomb:     file format elf64-x86-64


Disassembly of section .init:

0000000000002000 <_init>:
    2000:	f3 0f 1e fa          	endbr64
    2004:	48 83 ec 08          	sub    $0x8,%rsp
    2008:	48 8b 05 d9 4f 00 00 	mov    0x4fd9(%rip),%rax        # 6fe8 <__gmon_start__>
    200f:	48 85 c0             	test   %rax,%rax
    2012:	74 02                	je     2016 <_init+0x16>
    2014:	ff d0                	call   *%rax
    2016:	48 83 c4 08          	add    $0x8,%rsp
    201a:	c3                   	ret

Disassembly of section .plt:

0000000000002020 <getenv@plt-0x10>:
    2020:	ff 35 e2 4f 00 00    	push   0x4fe2(%rip)        # 7008 <_GLOBAL_OFFSET_TABLE_+0x8>
    2026:	ff 25 e4 4f 00 00    	jmp    *0x4fe4(%rip)        # 7010 <_GLOBAL_OFFSET_TABLE_+0x10>
    202c:	0f 1f 40 00          	nopl   0x0(%rax)

0000000000002030 <getenv@plt>:
    2030:	ff 25 e2 4f 00 00    	jmp    *0x4fe2(%rip)        # 7018 <getenv@GLIBC_2.2.5>
    2036:	68 00 00 00 00       	push   $0x0
    203b:	e9 e0 ff ff ff       	jmp    2020 <_init+0x20>

0000000000002040 <strcasecmp@plt>:
    2040:	ff 25 da 4f 00 00    	jmp    *0x4fda(%rip)        # 7020 <strcasecmp@GLIBC_2.2.5>
    2046:	68 01 00 00 00       	push   $0x1
    204b:	e9 d0 ff ff ff       	jmp    2020 <_init+0x20>

0000000000002050 <__errno_location@plt>:
    2050:	ff 25 d2 4f 00 00    	jmp    *0x4fd2(%rip)        # 7028 <__errno_location@GLIBC_2.2.5>
    2056:	68 02 00 00 00       	push   $0x2
    205b:	e9 c0 ff ff ff       	jmp    2020 <_init+0x20>

0000000000002060 <strcpy@plt>:
    2060:	ff 25 ca 4f 00 00    	jmp    *0x4fca(%rip)        # 7030 <strcpy@GLIBC_2.2.5>
    2066:	68 03 00 00 00       	push   $0x3
    206b:	e9 b0 ff ff ff       	jmp    2020 <_init+0x20>

0000000000002070 <puts@plt>:
    2070:	ff 25 c2 4f 00 00    	jmp    *0x4fc2(%rip)        # 7038 <puts@GLIBC_2.2.5>
    2076:	68 04 00 00 00       	push   $0x4
    207b:	e9 a0 ff ff ff       	jmp    2020 <_init+0x20>

0000000000002080 <write@plt>:
    2080:	ff 25 ba 4f 00 00    	jmp    *0x4fba(%rip)        # 7040 <write@GLIBC_2.2.5>
    2086:	68 05 00 00 00       	push   $0x5
    208b:	e9 90 ff ff ff       	jmp    2020 <_init+0x20>

0000000000002090 <strlen@plt>:
    2090:	ff 25 b2 4f 00 00    	jmp    *0x4fb2(%rip)        # 7048 <strlen@GLIBC_2.2.5>
    2096:	68 06 00 00 00       	push   $0x6
    209b:	e9 80 ff ff ff       	jmp    2020 <_init+0x20>

00000000000020a0 <__stack_chk_fail@plt>:
    20a0:	ff 25 aa 4f 00 00    	jmp    *0x4faa(%rip)        # 7050 <__stack_chk_fail@GLIBC_2.4>
    20a6:	68 07 00 00 00       	push   $0x7
    20ab:	e9 70 ff ff ff       	jmp    2020 <_init+0x20>

00000000000020b0 <printf@plt>:
    20b0:	ff 25 a2 4f 00 00    	jmp    *0x4fa2(%rip)        # 7058 <printf@GLIBC_2.2.5>
    20b6:	68 08 00 00 00       	push   $0x8
    20bb:	e9 60 ff ff ff       	jmp    2020 <_init+0x20>

00000000000020c0 <alarm@plt>:
    20c0:	ff 25 9a 4f 00 00    	jmp    *0x4f9a(%rip)        # 7060 <alarm@GLIBC_2.2.5>
    20c6:	68 09 00 00 00       	push   $0x9
    20cb:	e9 50 ff ff ff       	jmp    2020 <_init+0x20>

00000000000020d0 <close@plt>:
    20d0:	ff 25 92 4f 00 00    	jmp    *0x4f92(%rip)        # 7068 <close@GLIBC_2.2.5>
    20d6:	68 0a 00 00 00       	push   $0xa
    20db:	e9 40 ff ff ff       	jmp    2020 <_init+0x20>

00000000000020e0 <read@plt>:
    20e0:	ff 25 8a 4f 00 00    	jmp    *0x4f8a(%rip)        # 7070 <read@GLIBC_2.2.5>
    20e6:	68 0b 00 00 00       	push   $0xb
    20eb:	e9 30 ff ff ff       	jmp    2020 <_init+0x20>

00000000000020f0 <fgets@plt>:
    20f0:	ff 25 82 4f 00 00    	jmp    *0x4f82(%rip)        # 7078 <fgets@GLIBC_2.2.5>
    20f6:	68 0c 00 00 00       	push   $0xc
    20fb:	e9 20 ff ff ff       	jmp    2020 <_init+0x20>

0000000000002100 <strcmp@plt>:
    2100:	ff 25 7a 4f 00 00    	jmp    *0x4f7a(%rip)        # 7080 <strcmp@GLIBC_2.2.5>
    2106:	68 0d 00 00 00       	push   $0xd
    210b:	e9 10 ff ff ff       	jmp    2020 <_init+0x20>

0000000000002110 <signal@plt>:
    2110:	ff 25 72 4f 00 00    	jmp    *0x4f72(%rip)        # 7088 <signal@GLIBC_2.2.5>
    2116:	68 0e 00 00 00       	push   $0xe
    211b:	e9 00 ff ff ff       	jmp    2020 <_init+0x20>

0000000000002120 <gethostbyname@plt>:
    2120:	ff 25 6a 4f 00 00    	jmp    *0x4f6a(%rip)        # 7090 <gethostbyname@GLIBC_2.2.5>
    2126:	68 0f 00 00 00       	push   $0xf
    212b:	e9 f0 fe ff ff       	jmp    2020 <_init+0x20>

0000000000002130 <fprintf@plt>:
    2130:	ff 25 62 4f 00 00    	jmp    *0x4f62(%rip)        # 7098 <fprintf@GLIBC_2.2.5>
    2136:	68 10 00 00 00       	push   $0x10
    213b:	e9 e0 fe ff ff       	jmp    2020 <_init+0x20>

0000000000002140 <fflush@plt>:
    2140:	ff 25 5a 4f 00 00    	jmp    *0x4f5a(%rip)        # 70a0 <fflush@GLIBC_2.2.5>
    2146:	68 11 00 00 00       	push   $0x11
    214b:	e9 d0 fe ff ff       	jmp    2020 <_init+0x20>

0000000000002150 <__isoc99_sscanf@plt>:
    2150:	ff 25 52 4f 00 00    	jmp    *0x4f52(%rip)        # 70a8 <__isoc99_sscanf@GLIBC_2.7>
    2156:	68 12 00 00 00       	push   $0x12
    215b:	e9 c0 fe ff ff       	jmp    2020 <_init+0x20>

0000000000002160 <memmove@plt>:
    2160:	ff 25 4a 4f 00 00    	jmp    *0x4f4a(%rip)        # 70b0 <memmove@GLIBC_2.2.5>
    2166:	68 13 00 00 00       	push   $0x13
    216b:	e9 b0 fe ff ff       	jmp    2020 <_init+0x20>

0000000000002170 <fopen@plt>:
    2170:	ff 25 42 4f 00 00    	jmp    *0x4f42(%rip)        # 70b8 <fopen@GLIBC_2.2.5>
    2176:	68 14 00 00 00       	push   $0x14
    217b:	e9 a0 fe ff ff       	jmp    2020 <_init+0x20>

0000000000002180 <gethostname@plt>:
    2180:	ff 25 3a 4f 00 00    	jmp    *0x4f3a(%rip)        # 70c0 <gethostname@GLIBC_2.2.5>
    2186:	68 15 00 00 00       	push   $0x15
    218b:	e9 90 fe ff ff       	jmp    2020 <_init+0x20>

0000000000002190 <sprintf@plt>:
    2190:	ff 25 32 4f 00 00    	jmp    *0x4f32(%rip)        # 70c8 <sprintf@GLIBC_2.2.5>
    2196:	68 16 00 00 00       	push   $0x16
    219b:	e9 80 fe ff ff       	jmp    2020 <_init+0x20>

00000000000021a0 <exit@plt>:
    21a0:	ff 25 2a 4f 00 00    	jmp    *0x4f2a(%rip)        # 70d0 <exit@GLIBC_2.2.5>
    21a6:	68 17 00 00 00       	push   $0x17
    21ab:	e9 70 fe ff ff       	jmp    2020 <_init+0x20>

00000000000021b0 <connect@plt>:
    21b0:	ff 25 22 4f 00 00    	jmp    *0x4f22(%rip)        # 70d8 <connect@GLIBC_2.2.5>
    21b6:	68 18 00 00 00       	push   $0x18
    21bb:	e9 60 fe ff ff       	jmp    2020 <_init+0x20>

00000000000021c0 <sleep@plt>:
    21c0:	ff 25 1a 4f 00 00    	jmp    *0x4f1a(%rip)        # 70e0 <sleep@GLIBC_2.2.5>
    21c6:	68 19 00 00 00       	push   $0x19
    21cb:	e9 50 fe ff ff       	jmp    2020 <_init+0x20>

00000000000021d0 <__ctype_b_loc@plt>:
    21d0:	ff 25 12 4f 00 00    	jmp    *0x4f12(%rip)        # 70e8 <__ctype_b_loc@GLIBC_2.3>
    21d6:	68 1a 00 00 00       	push   $0x1a
    21db:	e9 40 fe ff ff       	jmp    2020 <_init+0x20>

00000000000021e0 <socket@plt>:
    21e0:	ff 25 0a 4f 00 00    	jmp    *0x4f0a(%rip)        # 70f0 <socket@GLIBC_2.2.5>
    21e6:	68 1b 00 00 00       	push   $0x1b
    21eb:	e9 30 fe ff ff       	jmp    2020 <_init+0x20>

Disassembly of section .text:

00000000000021f0 <_start>:
    21f0:	f3 0f 1e fa          	endbr64
    21f4:	31 ed                	xor    %ebp,%ebp
    21f6:	49 89 d1             	mov    %rdx,%r9
    21f9:	5e                   	pop    %rsi
    21fa:	48 89 e2             	mov    %rsp,%rdx
    21fd:	48 83 e4 f0          	and    $0xfffffffffffffff0,%rsp
    2201:	50                   	push   %rax
    2202:	54                   	push   %rsp
    2203:	4c 8d 05 46 19 00 00 	lea    0x1946(%rip),%r8        # 3b50 <__libc_csu_fini>
    220a:	48 8d 0d cf 18 00 00 	lea    0x18cf(%rip),%rcx        # 3ae0 <__libc_csu_init>
    2211:	48 8d 3d d1 00 00 00 	lea    0xd1(%rip),%rdi        # 22e9 <main>
    2218:	ff 15 c2 4d 00 00    	call   *0x4dc2(%rip)        # 6fe0 <__libc_start_main@GLIBC_2.2.5>
    221e:	f4                   	hlt
    221f:	90                   	nop

0000000000002220 <deregister_tm_clones>:
    2220:	48 8d 3d 99 f5 00 00 	lea    0xf599(%rip),%rdi        # 117c0 <stdout@GLIBC_2.2.5>
    2227:	48 8d 05 92 f5 00 00 	lea    0xf592(%rip),%rax        # 117c0 <stdout@GLIBC_2.2.5>
    222e:	48 39 f8             	cmp    %rdi,%rax
    2231:	74 15                	je     2248 <deregister_tm_clones+0x28>
    2233:	48 8b 05 9e 4d 00 00 	mov    0x4d9e(%rip),%rax        # 6fd8 <_ITM_deregisterTMCloneTable>
    223a:	48 85 c0             	test   %rax,%rax
    223d:	74 09                	je     2248 <deregister_tm_clones+0x28>
    223f:	ff e0                	jmp    *%rax
    2241:	0f 1f 80 00 00 00 00 	nopl   0x0(%rax)
    2248:	c3                   	ret
    2249:	0f 1f 80 00 00 00 00 	nopl   0x0(%rax)

0000000000002250 <register_tm_clones>:
    2250:	48 8d 3d 69 f5 00 00 	lea    0xf569(%rip),%rdi        # 117c0 <stdout@GLIBC_2.2.5>
    2257:	48 8d 35 62 f5 00 00 	lea    0xf562(%rip),%rsi        # 117c0 <stdout@GLIBC_2.2.5>
    225e:	48 29 fe             	sub    %rdi,%rsi
    2261:	48 89 f0             	mov    %rsi,%rax
    2264:	48 c1 ee 3f          	shr    $0x3f,%rsi
    2268:	48 c1 f8 03          	sar    $0x3,%rax
    226c:	48 01 c6             	add    %rax,%rsi
    226f:	48 d1 fe             	sar    %rsi
    2272:	74 14                	je     2288 <register_tm_clones+0x38>
    2274:	48 8b 05 75 4d 00 00 	mov    0x4d75(%rip),%rax        # 6ff0 <_ITM_registerTMCloneTable>
    227b:	48 85 c0             	test   %rax,%rax
    227e:	74 08                	je     2288 <register_tm_clones+0x38>
    2280:	ff e0                	jmp    *%rax
    2282:	66 0f 1f 44 00 00    	nopw   0x0(%rax,%rax,1)
    2288:	c3                   	ret
    2289:	0f 1f 80 00 00 00 00 	nopl   0x0(%rax)

0000000000002290 <__do_global_dtors_aux>:
    2290:	f3 0f 1e fa          	endbr64
    2294:	80 3d 4d f5 00 00 00 	cmpb   $0x0,0xf54d(%rip)        # 117e8 <completed.0>
    229b:	75 33                	jne    22d0 <__do_global_dtors_aux+0x40>
    229d:	55                   	push   %rbp
    229e:	48 83 3d 52 4d 00 00 	cmpq   $0x0,0x4d52(%rip)        # 6ff8 <__cxa_finalize@GLIBC_2.2.5>
    22a5:	00 
    22a6:	48 89 e5             	mov    %rsp,%rbp
    22a9:	74 0d                	je     22b8 <__do_global_dtors_aux+0x28>
    22ab:	48 8b 3d 56 4e 00 00 	mov    0x4e56(%rip),%rdi        # 7108 <__dso_handle>
    22b2:	ff 15 40 4d 00 00    	call   *0x4d40(%rip)        # 6ff8 <__cxa_finalize@GLIBC_2.2.5>
    22b8:	e8 63 ff ff ff       	call   2220 <deregister_tm_clones>
    22bd:	c6 05 24 f5 00 00 01 	movb   $0x1,0xf524(%rip)        # 117e8 <completed.0>
    22c4:	5d                   	pop    %rbp
    22c5:	c3                   	ret
    22c6:	66 2e 0f 1f 84 00 00 	cs nopw 0x0(%rax,%rax,1)
    22cd:	00 00 00 
    22d0:	c3                   	ret
    22d1:	66 66 2e 0f 1f 84 00 	data16 cs nopw 0x0(%rax,%rax,1)
    22d8:	00 00 00 00 
    22dc:	0f 1f 40 00          	nopl   0x0(%rax)

00000000000022e0 <frame_dummy>:
    22e0:	f3 0f 1e fa          	endbr64
    22e4:	e9 67 ff ff ff       	jmp    2250 <register_tm_clones>

00000000000022e9 <main>:
    22e9:	53                   	push   %rbx
    22ea:	83 ff 01             	cmp    $0x1,%edi
    22ed:	0f 84 f8 00 00 00    	je     23eb <main+0x102>
    22f3:	48 89 f3             	mov    %rsi,%rbx
    22f6:	83 ff 02             	cmp    $0x2,%edi
    22f9:	0f 85 1c 01 00 00    	jne    241b <main+0x132>
    22ff:	48 8b 7e 08          	mov    0x8(%rsi),%rdi
    2303:	48 8d 35 fa 1c 00 00 	lea    0x1cfa(%rip),%rsi        # 4004 <_IO_stdin_used+0x4>
    230a:	e8 61 fe ff ff       	call   2170 <fopen@plt>
    230f:	48 89 05 da f4 00 00 	mov    %rax,0xf4da(%rip)        # 117f0 <infile>
    2316:	48 85 c0             	test   %rax,%rax
    2319:	0f 84 df 00 00 00    	je     23fe <main+0x115>
    231f:	e8 45 06 00 00       	call   2969 <initialize_bomb>
    2324:	48 8d 3d 55 1d 00 00 	lea    0x1d55(%rip),%rdi        # 4080 <_IO_stdin_used+0x80>
    232b:	e8 40 fd ff ff       	call   2070 <puts@plt>
    2330:	48 8d 3d 89 1d 00 00 	lea    0x1d89(%rip),%rdi        # 40c0 <_IO_stdin_used+0xc0>
    2337:	e8 34 fd ff ff       	call   2070 <puts@plt>
    233c:	e8 a9 09 00 00       	call   2cea <read_line>
    2341:	48 89 c7             	mov    %rax,%rdi
    2344:	e8 f0 00 00 00       	call   2439 <phase_1>
    2349:	e8 d6 0a 00 00       	call   2e24 <phase_defused>
    234e:	48 8d 3d 9b 1d 00 00 	lea    0x1d9b(%rip),%rdi        # 40f0 <_IO_stdin_used+0xf0>
    2355:	e8 16 fd ff ff       	call   2070 <puts@plt>
    235a:	e8 8b 09 00 00       	call   2cea <read_line>         # move the return value of read_line to phase_2
    235f:	48 89 c7             	mov    %rax,%rdi
    2362:	e8 f2 00 00 00       	call   2459 <phase_2>
    2367:	e8 b8 0a 00 00       	call   2e24 <phase_defused>
    236c:	48 8d 3d ca 1c 00 00 	lea    0x1cca(%rip),%rdi        # 403d <_IO_stdin_used+0x3d>
    2373:	e8 f8 fc ff ff       	call   2070 <puts@plt>
    2378:	e8 6d 09 00 00       	call   2cea <read_line>
    237d:	48 89 c7             	mov    %rax,%rdi
    2380:	e8 43 01 00 00       	call   24c8 <phase_3>
    2385:	e8 9a 0a 00 00       	call   2e24 <phase_defused>
    238a:	48 8d 3d bd 1c 00 00 	lea    0x1cbd(%rip),%rdi        # 404e <_IO_stdin_used+0x4e>
    2391:	e8 da fc ff ff       	call   2070 <puts@plt>
    2396:	e8 4f 09 00 00       	call   2cea <read_line>
    239b:	48 89 c7             	mov    %rax,%rdi
    239e:	e8 4e 02 00 00       	call   25f1 <phase_4>
    23a3:	e8 7c 0a 00 00       	call   2e24 <phase_defused>
    23a8:	48 8d 3d 71 1d 00 00 	lea    0x1d71(%rip),%rdi        # 4120 <_IO_stdin_used+0x120>
    23af:	e8 bc fc ff ff       	call   2070 <puts@plt>
    23b4:	e8 31 09 00 00       	call   2cea <read_line>
    23b9:	48 89 c7             	mov    %rax,%rdi
    23bc:	e8 a1 02 00 00       	call   2662 <phase_5>
    23c1:	e8 5e 0a 00 00       	call   2e24 <phase_defused>
    23c6:	48 8d 3d 90 1c 00 00 	lea    0x1c90(%rip),%rdi        # 405d <_IO_stdin_used+0x5d>
    23cd:	e8 9e fc ff ff       	call   2070 <puts@plt>
    23d2:	e8 13 09 00 00       	call   2cea <read_line>
    23d7:	48 89 c7             	mov    %rax,%rdi
    23da:	e8 cb 02 00 00       	call   26aa <phase_6>
    23df:	e8 40 0a 00 00       	call   2e24 <phase_defused>
    23e4:	b8 00 00 00 00       	mov    $0x0,%eax
    23e9:	5b                   	pop    %rbx
    23ea:	c3                   	ret
    23eb:	48 8b 05 de f3 00 00 	mov    0xf3de(%rip),%rax        # 117d0 <stdin@GLIBC_2.2.5>
    23f2:	48 89 05 f7 f3 00 00 	mov    %rax,0xf3f7(%rip)        # 117f0 <infile>
    23f9:	e9 21 ff ff ff       	jmp    231f <main+0x36>
    23fe:	48 8b 53 08          	mov    0x8(%rbx),%rdx
    2402:	48 8b 33             	mov    (%rbx),%rsi
    2405:	48 8d 3d fa 1b 00 00 	lea    0x1bfa(%rip),%rdi        # 4006 <_IO_stdin_used+0x6>
    240c:	e8 9f fc ff ff       	call   20b0 <printf@plt>
    2411:	bf 08 00 00 00       	mov    $0x8,%edi
    2416:	e8 85 fd ff ff       	call   21a0 <exit@plt>
    241b:	48 8b 36             	mov    (%rsi),%rsi
    241e:	48 8d 3d fe 1b 00 00 	lea    0x1bfe(%rip),%rdi        # 4023 <_IO_stdin_used+0x23>
    2425:	b8 00 00 00 00       	mov    $0x0,%eax
    242a:	e8 81 fc ff ff       	call   20b0 <printf@plt>
    242f:	bf 08 00 00 00       	mov    $0x8,%edi
    2434:	e8 67 fd ff ff       	call   21a0 <exit@plt>

0000000000002439 <phase_1>:
    2439:	48 83 ec 08          	sub    $0x8,%rsp
    243d:	48 8d 35 04 1d 00 00 	lea    0x1d04(%rip),%rsi        # 4148 <_IO_stdin_used+0x148>
    2444:	e8 c4 04 00 00       	call   290d <strings_not_equal>
    2449:	85 c0                	test   %eax,%eax
    244b:	75 05                	jne    2452 <phase_1+0x19>
    244d:	48 83 c4 08          	add    $0x8,%rsp
    2451:	c3                   	ret
    2452:	e8 92 07 00 00       	call   2be9 <explode_bomb>
    2457:	eb f4                	jmp    244d <phase_1+0x14>

0000000000002459 <phase_2>:  # (string, ...)
    2459:	55                   	push   %rbp
    245a:	53                   	push   %rbx
    245b:	48 83 ec 28          	sub    $0x28,%rsp
    245f:	64 48 8b 04 25 28 00 	mov    %fs:0x28,%rax
    2466:	00 00 
    2468:	48 89 44 24 18       	mov    %rax,0x18(%rsp)
    246d:	31 c0                	xor    %eax,%eax
    246f:	48 89 e6             	mov    %rsp,%rsi                 # move top of stack to rsi?
    2472:	e8 32 08 00 00       	call   2ca9 <read_six_numbers>
    2477:	83 3c 24 02          	cmpl   $0x2,(%rsp)
    247b:	75 0a                	jne    2487 <phase_2+0x2e>
    247d:	48 89 e3             	mov    %rsp,%rbx
    2480:	48 8d 6c 24 14       	lea    0x14(%rsp),%rbp
    2485:	eb 10                	jmp    2497 <phase_2+0x3e>
    2487:	e8 5d 07 00 00       	call   2be9 <explode_bomb>
    248c:	eb ef                	jmp    247d <phase_2+0x24>
    248e:	48 83 c3 04          	add    $0x4,%rbx
    2492:	48 39 eb             	cmp    %rbp,%rbx
    2495:	74 15                	je     24ac <phase_2+0x53>
    2497:	8b 05 83 4c 00 00    	mov    0x4c83(%rip),%eax        # 7120 <mul.1>
    249d:	0f af 03             	imul   (%rbx),%eax
    24a0:	39 43 04             	cmp    %eax,0x4(%rbx)
    24a3:	74 e9                	je     248e <phase_2+0x35>
    24a5:	e8 3f 07 00 00       	call   2be9 <explode_bomb>
    24aa:	eb e2                	jmp    248e <phase_2+0x35>
    24ac:	48 8b 44 24 18       	mov    0x18(%rsp),%rax
    24b1:	64 48 2b 04 25 28 00 	sub    %fs:0x28,%rax
    24b8:	00 00 
    24ba:	75 07                	jne    24c3 <phase_2+0x6a>
    24bc:	48 83 c4 28          	add    $0x28,%rsp
    24c0:	5b                   	pop    %rbx
    24c1:	5d                   	pop    %rbp
    24c2:	c3                   	ret
    24c3:	e8 d8 fb ff ff       	call   20a0 <__stack_chk_fail@plt>

00000000000024c8 <phase_3>:
    24c8:	53                   	push   %rbx
    24c9:	48 83 ec 10          	sub    $0x10,%rsp
    24cd:	64 48 8b 04 25 28 00 	mov    %fs:0x28,%rax
    24d4:	00 00 
    24d6:	48 89 44 24 08       	mov    %rax,0x8(%rsp)
    24db:	31 c0                	xor    %eax,%eax
    24dd:	48 8d 4c 24 04       	lea    0x4(%rsp),%rcx
    24e2:	48 89 e2             	mov    %rsp,%rdx
    24e5:	48 8d 35 15 21 00 00 	lea    0x2115(%rip),%rsi        # 4601 <array.0+0x421>
    24ec:	e8 5f fc ff ff       	call   2150 <__isoc99_sscanf@plt>
    24f1:	83 f8 01             	cmp    $0x1,%eax
    24f4:	7e 07                	jle    24fd <phase_3+0x35>
    24f6:	83 7c 24 04 00       	cmpl   $0x0,0x4(%rsp)
    24fb:	78 05                	js     2502 <phase_3+0x3a>
    24fd:	e8 e7 06 00 00       	call   2be9 <explode_bomb>
    2502:	83 3c 24 07          	cmpl   $0x7,(%rsp)
    2506:	0f 87 98 00 00 00    	ja     25a4 <phase_3+0xdc>
    250c:	8b 04 24             	mov    (%rsp),%eax
    250f:	48 8d 15 aa 1c 00 00 	lea    0x1caa(%rip),%rdx        # 41c0 <_IO_stdin_used+0x1c0>
    2516:	48 63 04 82          	movslq (%rdx,%rax,4),%rax
    251a:	48 01 d0             	add    %rdx,%rax
    251d:	ff e0                	jmp    *%rax
    251f:	b8 93 03 00 00       	mov    $0x393,%eax
    2524:	83 e8 73             	sub    $0x73,%eax
    2527:	05 93 02 00 00       	add    $0x293,%eax
    252c:	8d 98 33 fd ff ff    	lea    -0x2cd(%rax),%ebx
    2532:	e8 b2 06 00 00       	call   2be9 <explode_bomb>
    2537:	8d 83 cd 02 00 00    	lea    0x2cd(%rbx),%eax
    253d:	2d cd 02 00 00       	sub    $0x2cd,%eax
    2542:	05 cd 02 00 00       	add    $0x2cd,%eax
    2547:	2d cd 02 00 00       	sub    $0x2cd,%eax
    254c:	83 3c 24 05          	cmpl   $0x5,(%rsp)
    2550:	7f 06                	jg     2558 <phase_3+0x90>
    2552:	39 44 24 04          	cmp    %eax,0x4(%rsp)
    2556:	74 05                	je     255d <phase_3+0x95>
    2558:	e8 8c 06 00 00       	call   2be9 <explode_bomb>
    255d:	48 8b 44 24 08       	mov    0x8(%rsp),%rax
    2562:	64 48 2b 04 25 28 00 	sub    %fs:0x28,%rax
    2569:	00 00 
    256b:	75 43                	jne    25b0 <phase_3+0xe8>
    256d:	48 83 c4 10          	add    $0x10,%rsp
    2571:	5b                   	pop    %rbx
    2572:	c3                   	ret
    2573:	b8 00 00 00 00       	mov    $0x0,%eax
    2578:	eb aa                	jmp    2524 <phase_3+0x5c>
    257a:	b8 00 00 00 00       	mov    $0x0,%eax
    257f:	eb a6                	jmp    2527 <phase_3+0x5f>
    2581:	b8 00 00 00 00       	mov    $0x0,%eax
    2586:	eb a4                	jmp    252c <phase_3+0x64>
    2588:	bb 00 00 00 00       	mov    $0x0,%ebx
    258d:	eb a8                	jmp    2537 <phase_3+0x6f>
    258f:	b8 00 00 00 00       	mov    $0x0,%eax
    2594:	eb a7                	jmp    253d <phase_3+0x75>
    2596:	b8 00 00 00 00       	mov    $0x0,%eax
    259b:	eb a5                	jmp    2542 <phase_3+0x7a>
    259d:	b8 00 00 00 00       	mov    $0x0,%eax
    25a2:	eb a3                	jmp    2547 <phase_3+0x7f>
    25a4:	e8 40 06 00 00       	call   2be9 <explode_bomb>
    25a9:	b8 00 00 00 00       	mov    $0x0,%eax
    25ae:	eb 9c                	jmp    254c <phase_3+0x84>
    25b0:	e8 eb fa ff ff       	call   20a0 <__stack_chk_fail@plt>

00000000000025b5 <func4>:
    25b5:	b8 00 00 00 00       	mov    $0x0,%eax            # ret = 0
    25ba:	85 ff                	test   %edi,%edi
    25bc:	7e 32                	jle    25f0 <func4+0x3b>    # if x <= 0: return 0
    25be:	41 54                	push   %r12
    25c0:	55                   	push   %rbp
    25c1:	53                   	push   %rbx                 # save args
    25c2:	89 fb                	mov    %edi,%ebx            # ebx = x
    25c4:	89 f5                	mov    %esi,%ebp            # ebp = y
    25c6:	89 f0                	mov    %esi,%eax            # ret = y
    25c8:	83 ff 01             	cmp    $0x1,%edi
    25cb:	74 1e                	je     25eb <func4+0x36>    # if x == 1: return y
    25cd:	44 8d 66 01          	lea    0x1(%rsi),%r12d      # r12d = y+1
    25d1:	8d 7f ff             	lea    -0x1(%rdi),%edi      # x = x - 1
    25d4:	44 89 e6             	mov    %r12d,%esi           # y = y+1
    25d7:	e8 d9 ff ff ff       	call   25b5 <func4>         # ebp += func4(_x-1, _y+1)
    25dc:	01 c5                	add    %eax,%ebp
    25de:	8d 7b fe             	lea    -0x2(%rbx),%edi      # x = ebx - 2
    25e1:	44 89 e6             	mov    %r12d,%esi           # y = y+1
    25e4:	e8 cc ff ff ff       	call   25b5 <func4>         # ret = func4(_x-2, _y+1) + ebp
    25e9:	01 e8                	add    %ebp,%eax
    25eb:	5b                   	pop    %rbx
    25ec:	5d                   	pop    %rbp
    25ed:	41 5c                	pop    %r12
    25ef:	c3                   	ret
    25f0:	c3                   	ret  # return func4(_x - 1, _y + 1) + func4(_x - 2, _y + 1) + y;

00000000000025f1 <phase_4>:
    25f1:	48 83 ec 18          	sub    $0x18,%rsp
    25f5:	64 48 8b 04 25 28 00 	mov    %fs:0x28,%rax
    25fc:	00 00 
    25fe:	48 89 44 24 08       	mov    %rax,0x8(%rsp)
    2603:	31 c0                	xor    %eax,%eax
    2605:	48 89 e1             	mov    %rsp,%rcx
    2608:	48 8d 54 24 04       	lea    0x4(%rsp),%rdx
    260d:	48 8d 35 ed 1f 00 00 	lea    0x1fed(%rip),%rsi        # 4601 <array.0+0x421>
    2614:	e8 37 fb ff ff       	call   2150 <__isoc99_sscanf@plt>
    2619:	83 f8 02             	cmp    $0x2,%eax
    261c:	75 0b                	jne    2629 <phase_4+0x38>
    261e:	8b 04 24             	mov    (%rsp),%eax
    2621:	83 e8 02             	sub    $0x2,%eax
    2624:	83 f8 02             	cmp    $0x2,%eax
    2627:	76 05                	jbe    262e <phase_4+0x3d>
    2629:	e8 bb 05 00 00       	call   2be9 <explode_bomb>
    262e:	8b 34 24             	mov    (%rsp),%esi
    2631:	bf 07 00 00 00       	mov    $0x7,%edi
    2636:	e8 7a ff ff ff       	call   25b5 <func4>
    263b:	39 44 24 04          	cmp    %eax,0x4(%rsp)
    263f:	75 15                	jne    2656 <phase_4+0x65>
    2641:	48 8b 44 24 08       	mov    0x8(%rsp),%rax
    2646:	64 48 2b 04 25 28 00 	sub    %fs:0x28,%rax
    264d:	00 00 
    264f:	75 0c                	jne    265d <phase_4+0x6c>
    2651:	48 83 c4 18          	add    $0x18,%rsp
    2655:	c3                   	ret
    2656:	e8 8e 05 00 00       	call   2be9 <explode_bomb>
    265b:	eb e4                	jmp    2641 <phase_4+0x50>
    265d:	e8 3e fa ff ff       	call   20a0 <__stack_chk_fail@plt>

0000000000002662 <phase_5>:                                             # phase_5(str)
    2662:	53                   	push   %rbx
    2663:	48 89 fb             	mov    %rdi,%rbx
    2666:	e8 85 02 00 00       	call   28f0 <string_length>     # assert strlen(str) == 6
    266b:	83 f8 06             	cmp    $0x6,%eax
    266e:	75 2c                	jne    269c <phase_5+0x3a>
    2670:	48 89 d8             	mov    %rbx,%rax                # char *rax = str;
    2673:	48 8d 7b 06          	lea    0x6(%rbx),%rdi           # char *rdi = str+6;  // end
    2677:	b9 00 00 00 00       	mov    $0x0,%ecx                # int ecx = 0;
    267c:	48 8d 35 5d 1b 00 00 	lea    0x1b5d(%rip),%rsi        # int rsi[];  41e0 <array.0>
    2683:	0f b6 10             	movzbl (%rax),%edx              # char edx = *rax;    (LABEL)
    2686:	83 e2 0f             	and    $0xf,%edx                # edx &= 0b1111
    2689:	03 0c 96             	add    (%rsi,%rdx,4),%ecx       # ecx += rsi[rdx]
    268c:	48 83 c0 01          	add    $0x1,%rax                # rax += 1
    2690:	48 39 f8             	cmp    %rdi,%rax                # if rax != rdi: goto (LABEL)
    2693:	75 ee                	jne    2683 <phase_5+0x21>
    2695:	83 f9 23             	cmp    $0x23,%ecx               # if ecx <= 35: explode
    2698:	75 09                	jne    26a3 <phase_5+0x41>
    269a:	5b                   	pop    %rbx
    269b:	c3                   	ret
    269c:	e8 48 05 00 00       	call   2be9 <explode_bomb>
    26a1:	eb cd                	jmp    2670 <phase_5+0xe>
    26a3:	e8 41 05 00 00       	call   2be9 <explode_bomb>
    26a8:	eb f0                	jmp    269a <phase_5+0x38>

00000000000026aa <phase_6>:
    26aa:	41 56                	push   %r14
    26ac:	41 55                	push   %r13
    26ae:	41 54                	push   %r12
    26b0:	55                   	push   %rbp
    26b1:	53                   	push   %rbx
    26b2:	48 83 ec 60          	sub    $0x60,%rsp
    26b6:	64 48 8b 04 25 28 00 	mov    %fs:0x28,%rax
    26bd:	00 00 
    26bf:	48 89 44 24 58       	mov    %rax,0x58(%rsp)          # STACK[0x58] = rax
    26c4:	31 c0                	xor    %eax,%eax                # eax = 0
    26c6:	49 89 e5             	mov    %rsp,%r13
    26c9:	4c 89 ee             	mov    %r13,%rsi                # rsi = r13 = STACK
    26cc:	e8 d8 05 00 00       	call   2ca9 <read_six_numbers>  # read_six_numbers("d d d d d d", STACK)
    26d1:	41 be 01 00 00 00    	mov    $0x1,%r14d               # r14 = 1
    26d7:	49 89 e4             	mov    %rsp,%r12                # r12 = STACK
    26da:	eb 28                	jmp    2704 <phase_6+0x5a>      # goto                      LABEL_UPDATE
    26dc:	e8 08 05 00 00       	call   2be9 <explode_bomb>
    26e1:	eb 30                	jmp    2713 <phase_6+0x69>
    26e3:	48 83 c3 01          	add    $0x1,%rbx                # rbx += 1                  LABEL_26e3
    26e7:	83 fb 05             	cmp    $0x5,%ebx
    26ea:	7f 10                	jg     26fc <phase_6+0x52>
    26ec:	41 8b 04 9c          	mov    (%r12,%rbx,4),%eax       # eax = r12[rbx*4]          LABEL_LOOP
    26f0:	39 45 00             	cmp    %eax,0x0(%rbp)           # if STACK != eax: goto     LABEL_26e3
    26f3:	75 ee                	jne    26e3 <phase_6+0x39>
    26f5:	e8 ef 04 00 00       	call   2be9 <explode_bomb>      # bomb (STACK == eax)
    26fa:	eb e7                	jmp    26e3 <phase_6+0x39>
    26fc:	49 83 c6 01          	add    $0x1,%r14
    2700:	49 83 c5 04          	add    $0x4,%r13
    2704:	4c 89 ed             	mov    %r13,%rbp                # rbp = r13                 LABEL_UPDATE
    2707:	41 8b 45 00          	mov    0x0(%r13),%eax           # eax = M[r13] - 1
    270b:	83 e8 01             	sub    $0x1,%eax
    270e:	83 f8 05             	cmp    $0x5,%eax                # if eax > 5: bomb
    2711:	77 c9                	ja     26dc <phase_6+0x32>
    2713:	41 83 fe 05          	cmp    $0x5,%r14d               # if r14 > 5: goto          LABEL_POST
    2717:	7f 05                	jg     271e <phase_6+0x74>
    2719:	4c 89 f3             	mov    %r14,%rbx                # rbx = r14 && goto   LABEL_LOOP
    271c:	eb ce                	jmp    26ec <phase_6+0x42>
    271e:	be 00 00 00 00       	mov    $0x0,%esi                # esi = 0                   LABEL_POST
    2723:	8b 0c b4             	mov    (%rsp,%rsi,4),%ecx       # ecx = STACK[rsi * 4]
    2726:	b8 01 00 00 00       	mov    $0x1,%eax                # eax = 1
    272b:	48 8d 15 2e ec 00 00 	lea    0xec2e(%rip),%rdx        # rdx =  11360 <node1>
    2732:	83 f9 01             	cmp    $0x1,%ecx                # if ecx <= 1: goto         LABLE_POSTPOST
    2735:	7e 0b                	jle    2742 <phase_6+0x98>
    2737:	48 8b 52 08          	mov    0x8(%rdx),%rdx           # 
    273b:	83 c0 01             	add    $0x1,%eax
    273e:	39 c8                	cmp    %ecx,%eax
    2740:	75 f5                	jne    2737 <phase_6+0x8d>
    2742:	48 89 54 f4 20       	mov    %rdx,0x20(%rsp,%rsi,8)   # LABLE_POSTPOST
    2747:	48 83 c6 01          	add    $0x1,%rsi
    274b:	48 83 fe 06          	cmp    $0x6,%rsi
    274f:	75 d2                	jne    2723 <phase_6+0x79>
    2751:	48 8b 5c 24 20       	mov    0x20(%rsp),%rbx
    2756:	48 8b 44 24 28       	mov    0x28(%rsp),%rax
    275b:	48 89 43 08          	mov    %rax,0x8(%rbx)
    275f:	48 8b 54 24 30       	mov    0x30(%rsp),%rdx
    2764:	48 89 50 08          	mov    %rdx,0x8(%rax)
    2768:	48 8b 44 24 38       	mov    0x38(%rsp),%rax
    276d:	48 89 42 08          	mov    %rax,0x8(%rdx)
    2771:	48 8b 54 24 40       	mov    0x40(%rsp),%rdx
    2776:	48 89 50 08          	mov    %rdx,0x8(%rax)
    277a:	48 8b 44 24 48       	mov    0x48(%rsp),%rax
    277f:	48 89 42 08          	mov    %rax,0x8(%rdx)
    2783:	48 c7 40 08 00 00 00 	movq   $0x0,0x8(%rax)
    278a:	00 
    278b:	bd 05 00 00 00       	mov    $0x5,%ebp
    2790:	eb 09                	jmp    279b <phase_6+0xf1>
    2792:	48 8b 5b 08          	mov    0x8(%rbx),%rbx
    2796:	83 ed 01             	sub    $0x1,%ebp
    2799:	74 11                	je     27ac <phase_6+0x102>
    279b:	48 8b 43 08          	mov    0x8(%rbx),%rax
    279f:	8b 00                	mov    (%rax),%eax
    27a1:	39 03                	cmp    %eax,(%rbx)
    27a3:	7e ed                	jle    2792 <phase_6+0xe8>
    27a5:	e8 3f 04 00 00       	call   2be9 <explode_bomb>
    27aa:	eb e6                	jmp    2792 <phase_6+0xe8>
    27ac:	48 8b 44 24 58       	mov    0x58(%rsp),%rax
    27b1:	64 48 2b 04 25 28 00 	sub    %fs:0x28,%rax
    27b8:	00 00 
    27ba:	75 0d                	jne    27c9 <phase_6+0x11f>
    27bc:	48 83 c4 60          	add    $0x60,%rsp
    27c0:	5b                   	pop    %rbx
    27c1:	5d                   	pop    %rbp
    27c2:	41 5c                	pop    %r12
    27c4:	41 5d                	pop    %r13
    27c6:	41 5e                	pop    %r14
    27c8:	c3                   	ret
    27c9:	e8 d2 f8 ff ff       	call   20a0 <__stack_chk_fail@plt>

00000000000027ce <fun7>:                                                # fun7(rdi, rsi)
    27ce:	55                   	push   %rbp
    27cf:	53                   	push   %rbx
    27d0:	48 83 ec 08          	sub    $0x8,%rsp
    27d4:	48 89 fb             	mov    %rdi,%rbx
    27d7:	48 89 f5             	mov    %rsi,%rbp
    27da:	48 85 ff             	test   %rdi,%rdi
    27dd:	74 2b                	je     280a <fun7+0x3c>         # if rdi == NULL: explode
    27df:	0f b6 55 00          	movzbl 0x0(%rbp),%edx           # edx = *rsi  (first char)
    27e3:	84 d2                	test   %dl,%dl
    27e5:	74 2a                	je     2811 <fun7+0x43>         # if dl == '\0':  return rdi->value
    27e7:	80 fa 61             	cmp    $0x61,%dl
    27ea:	74 29                	je     2815 <fun7+0x47>         # return fun7(rdi->child[rdx-'a'], rsi+1)  0 <= rdx < 26
    27ec:	0f be d2             	movsbl %dl,%edx
    27ef:	83 ea 61             	sub    $0x61,%edx
    27f2:	b8 01 00 00 00       	mov    $0x1,%eax
    27f7:	39 d0                	cmp    %edx,%eax
    27f9:	74 1f                	je     281a <fun7+0x4c>
    27fb:	83 c0 01             	add    $0x1,%eax
    27fe:	83 f8 1a             	cmp    $0x1a,%eax
    2801:	75 f4                	jne    27f7 <fun7+0x29>
    2803:	e8 e1 03 00 00       	call   2be9 <explode_bomb>
    2808:	eb 21                	jmp    282b <fun7+0x5d>
    280a:	e8 da 03 00 00       	call   2be9 <explode_bomb>
    280f:	eb ce                	jmp    27df <fun7+0x11>
    2811:	8b 03                	mov    (%rbx),%eax
    2813:	eb 16                	jmp    282b <fun7+0x5d>
    2815:	ba 00 00 00 00       	mov    $0x0,%edx
    281a:	48 8d 75 01          	lea    0x1(%rbp),%rsi
    281e:	48 63 d2             	movslq %edx,%rdx
    2821:	48 8b 7c d3 08       	mov    0x8(%rbx,%rdx,8),%rdi
    2826:	e8 a3 ff ff ff       	call   27ce <fun7>
    282b:	48 83 c4 08          	add    $0x8,%rsp
    282f:	5b                   	pop    %rbx
    2830:	5d                   	pop    %rbp
    2831:	c3                   	ret

0000000000002832 <secret_phase>:
    2832:	48 83 ec 18          	sub    $0x18,%rsp
    2836:	c7 44 24 0c 14 00 00 	movl   $0x14,0xc(%rsp)
    283d:	00 
    283e:	e8 a7 04 00 00       	call   2cea <read_line>
    2843:	48 89 c6             	mov    %rax,%rsi
    2846:	48 8d 3d 93 62 00 00 	lea    0x6293(%rip),%rdi        # 8ae0 <t0>
    284d:	e8 7c ff ff ff       	call   27ce <fun7>
    2852:	8b 54 24 0c          	mov    0xc(%rsp),%edx
    2856:	39 c2                	cmp    %eax,%edx                # assert fun7(root, read_line()) == 20
    2858:	75 16                	jne    2870 <secret_phase+0x3e>
    285a:	48 8d 3d 1f 19 00 00 	lea    0x191f(%rip),%rdi        # 4180 <_IO_stdin_used+0x180>
    2861:	e8 0a f8 ff ff       	call   2070 <puts@plt>
    2866:	e8 b9 05 00 00       	call   2e24 <phase_defused>
    286b:	48 83 c4 18          	add    $0x18,%rsp
    286f:	c3                   	ret
    2870:	e8 74 03 00 00       	call   2be9 <explode_bomb>
    2875:	eb e3                	jmp    285a <secret_phase+0x28>

0000000000002877 <sig_handler>:
    2877:	48 83 ec 08          	sub    $0x8,%rsp
    287b:	48 8d 3d 9e 19 00 00 	lea    0x199e(%rip),%rdi        # 4220 <array.0+0x40>
    2882:	e8 e9 f7 ff ff       	call   2070 <puts@plt>
    2887:	bf 03 00 00 00       	mov    $0x3,%edi
    288c:	e8 2f f9 ff ff       	call   21c0 <sleep@plt>
    2891:	48 8d 3d 71 1b 00 00 	lea    0x1b71(%rip),%rdi        # 4409 <array.0+0x229>
    2898:	b8 00 00 00 00       	mov    $0x0,%eax
    289d:	e8 0e f8 ff ff       	call   20b0 <printf@plt>
    28a2:	48 8b 3d 17 ef 00 00 	mov    0xef17(%rip),%rdi        # 117c0 <stdout@GLIBC_2.2.5>
    28a9:	e8 92 f8 ff ff       	call   2140 <fflush@plt>
    28ae:	bf 01 00 00 00       	mov    $0x1,%edi
    28b3:	e8 08 f9 ff ff       	call   21c0 <sleep@plt>
    28b8:	48 8d 3d 52 1b 00 00 	lea    0x1b52(%rip),%rdi        # 4411 <array.0+0x231>
    28bf:	e8 ac f7 ff ff       	call   2070 <puts@plt>
    28c4:	bf 10 00 00 00       	mov    $0x10,%edi
    28c9:	e8 d2 f8 ff ff       	call   21a0 <exit@plt>

00000000000028ce <invalid_phase>:
    28ce:	48 83 ec 08          	sub    $0x8,%rsp
    28d2:	48 89 fe             	mov    %rdi,%rsi
    28d5:	48 8d 3d 3f 1b 00 00 	lea    0x1b3f(%rip),%rdi        # 441b <array.0+0x23b>
    28dc:	b8 00 00 00 00       	mov    $0x0,%eax
    28e1:	e8 ca f7 ff ff       	call   20b0 <printf@plt>
    28e6:	bf 08 00 00 00       	mov    $0x8,%edi
    28eb:	e8 b0 f8 ff ff       	call   21a0 <exit@plt>

00000000000028f0 <string_length>:
    28f0:	80 3f 00             	cmpb   $0x0,(%rdi)
    28f3:	74 12                	je     2907 <string_length+0x17>
    28f5:	b8 00 00 00 00       	mov    $0x0,%eax
    28fa:	48 83 c7 01          	add    $0x1,%rdi
    28fe:	83 c0 01             	add    $0x1,%eax
    2901:	80 3f 00             	cmpb   $0x0,(%rdi)
    2904:	75 f4                	jne    28fa <string_length+0xa>
    2906:	c3                   	ret
    2907:	b8 00 00 00 00       	mov    $0x0,%eax
    290c:	c3                   	ret

000000000000290d <strings_not_equal>:
    290d:	41 54                	push   %r12
    290f:	55                   	push   %rbp
    2910:	53                   	push   %rbx
    2911:	48 89 fb             	mov    %rdi,%rbx
    2914:	48 89 f5             	mov    %rsi,%rbp
    2917:	e8 d4 ff ff ff       	call   28f0 <string_length>
    291c:	41 89 c4             	mov    %eax,%r12d
    291f:	48 89 ef             	mov    %rbp,%rdi
    2922:	e8 c9 ff ff ff       	call   28f0 <string_length>
    2927:	89 c2                	mov    %eax,%edx
    2929:	b8 01 00 00 00       	mov    $0x1,%eax
    292e:	41 39 d4             	cmp    %edx,%r12d
    2931:	75 31                	jne    2964 <strings_not_equal+0x57>
    2933:	0f b6 13             	movzbl (%rbx),%edx
    2936:	84 d2                	test   %dl,%dl
    2938:	74 1e                	je     2958 <strings_not_equal+0x4b>
    293a:	b8 00 00 00 00       	mov    $0x0,%eax
    293f:	38 54 05 00          	cmp    %dl,0x0(%rbp,%rax,1)
    2943:	75 1a                	jne    295f <strings_not_equal+0x52>
    2945:	48 83 c0 01          	add    $0x1,%rax
    2949:	0f b6 14 03          	movzbl (%rbx,%rax,1),%edx
    294d:	84 d2                	test   %dl,%dl
    294f:	75 ee                	jne    293f <strings_not_equal+0x32>
    2951:	b8 00 00 00 00       	mov    $0x0,%eax
    2956:	eb 0c                	jmp    2964 <strings_not_equal+0x57>
    2958:	b8 00 00 00 00       	mov    $0x0,%eax
    295d:	eb 05                	jmp    2964 <strings_not_equal+0x57>
    295f:	b8 01 00 00 00       	mov    $0x1,%eax
    2964:	5b                   	pop    %rbx
    2965:	5d                   	pop    %rbp
    2966:	41 5c                	pop    %r12
    2968:	c3                   	ret

0000000000002969 <initialize_bomb>:
    2969:	55                   	push   %rbp
    296a:	53                   	push   %rbx
    296b:	48 81 ec 58 20 00 00 	sub    $0x2058,%rsp
    2972:	64 48 8b 04 25 28 00 	mov    %fs:0x28,%rax
    2979:	00 00 
    297b:	48 89 84 24 48 20 00 	mov    %rax,0x2048(%rsp)
    2982:	00 
    2983:	31 c0                	xor    %eax,%eax
    2985:	48 8d 35 eb fe ff ff 	lea    -0x115(%rip),%rsi        # 2877 <sig_handler>
    298c:	bf 02 00 00 00       	mov    $0x2,%edi
    2991:	e8 7a f7 ff ff       	call   2110 <signal@plt>
    2996:	48 89 e7             	mov    %rsp,%rdi
    2999:	be 40 00 00 00       	mov    $0x40,%esi
    299e:	e8 dd f7 ff ff       	call   2180 <gethostname@plt>
    29a3:	85 c0                	test   %eax,%eax
    29a5:	75 45                	jne    29ec <initialize_bomb+0x83>
    29a7:	48 8b 3d 12 ea 00 00 	mov    0xea12(%rip),%rdi        # 113c0 <host_table>
    29ae:	48 8d 1d 13 ea 00 00 	lea    0xea13(%rip),%rbx        # 113c8 <host_table+0x8>
    29b5:	48 89 e5             	mov    %rsp,%rbp
    29b8:	48 85 ff             	test   %rdi,%rdi
    29bb:	74 19                	je     29d6 <initialize_bomb+0x6d>
    29bd:	48 89 ee             	mov    %rbp,%rsi
    29c0:	e8 7b f6 ff ff       	call   2040 <strcasecmp@plt>
    29c5:	85 c0                	test   %eax,%eax
    29c7:	74 59                	je     2a22 <initialize_bomb+0xb9>
    29c9:	48 83 c3 08          	add    $0x8,%rbx
    29cd:	48 8b 7b f8          	mov    -0x8(%rbx),%rdi
    29d1:	48 85 ff             	test   %rdi,%rdi
    29d4:	75 e7                	jne    29bd <initialize_bomb+0x54>
    29d6:	48 8d 3d b3 18 00 00 	lea    0x18b3(%rip),%rdi        # 4290 <array.0+0xb0>
    29dd:	e8 8e f6 ff ff       	call   2070 <puts@plt>
    29e2:	bf 08 00 00 00       	mov    $0x8,%edi
    29e7:	e8 b4 f7 ff ff       	call   21a0 <exit@plt>
    29ec:	48 8d 3d 65 18 00 00 	lea    0x1865(%rip),%rdi        # 4258 <array.0+0x78>
    29f3:	e8 78 f6 ff ff       	call   2070 <puts@plt>
    29f8:	bf 08 00 00 00       	mov    $0x8,%edi
    29fd:	e8 9e f7 ff ff       	call   21a0 <exit@plt>
    2a02:	48 8d 74 24 40       	lea    0x40(%rsp),%rsi
    2a07:	48 8d 3d 1e 1a 00 00 	lea    0x1a1e(%rip),%rdi        # 442c <array.0+0x24c>
    2a0e:	b8 00 00 00 00       	mov    $0x0,%eax
    2a13:	e8 98 f6 ff ff       	call   20b0 <printf@plt>
    2a18:	bf 08 00 00 00       	mov    $0x8,%edi
    2a1d:	e8 7e f7 ff ff       	call   21a0 <exit@plt>
    2a22:	48 8d 7c 24 40       	lea    0x40(%rsp),%rdi
    2a27:	e8 61 0e 00 00       	call   388d <init_driver>
    2a2c:	85 c0                	test   %eax,%eax
    2a2e:	78 d2                	js     2a02 <initialize_bomb+0x99>
    2a30:	48 8d 3d 0f 1a 00 00 	lea    0x1a0f(%rip),%rdi        # 4446 <array.0+0x266>
    2a37:	e8 34 f6 ff ff       	call   2070 <puts@plt>
    2a3c:	48 8d 3d 0f 1a 00 00 	lea    0x1a0f(%rip),%rdi        # 4452 <array.0+0x272>
    2a43:	e8 28 f6 ff ff       	call   2070 <puts@plt>
    2a48:	48 8d 3d 0f 1a 00 00 	lea    0x1a0f(%rip),%rdi        # 445e <array.0+0x27e>
    2a4f:	e8 1c f6 ff ff       	call   2070 <puts@plt>
    2a54:	48 8d 3d 0f 1a 00 00 	lea    0x1a0f(%rip),%rdi        # 446a <array.0+0x28a>
    2a5b:	e8 10 f6 ff ff       	call   2070 <puts@plt>
    2a60:	48 8d 3d 0f 1a 00 00 	lea    0x1a0f(%rip),%rdi        # 4476 <array.0+0x296>
    2a67:	e8 04 f6 ff ff       	call   2070 <puts@plt>
    2a6c:	48 8b 84 24 48 20 00 	mov    0x2048(%rsp),%rax
    2a73:	00 
    2a74:	64 48 2b 04 25 28 00 	sub    %fs:0x28,%rax
    2a7b:	00 00 
    2a7d:	75 0a                	jne    2a89 <initialize_bomb+0x120>
    2a7f:	48 81 c4 58 20 00 00 	add    $0x2058,%rsp
    2a86:	5b                   	pop    %rbx
    2a87:	5d                   	pop    %rbp
    2a88:	c3                   	ret
    2a89:	e8 12 f6 ff ff       	call   20a0 <__stack_chk_fail@plt>

0000000000002a8e <initialize_bomb_solve>:
    2a8e:	c3                   	ret

0000000000002a8f <blank_line>:
    2a8f:	55                   	push   %rbp
    2a90:	53                   	push   %rbx
    2a91:	48 83 ec 08          	sub    $0x8,%rsp
    2a95:	48 89 fd             	mov    %rdi,%rbp
    2a98:	0f b6 5d 00          	movzbl 0x0(%rbp),%ebx
    2a9c:	84 db                	test   %bl,%bl
    2a9e:	74 1e                	je     2abe <blank_line+0x2f>
    2aa0:	e8 2b f7 ff ff       	call   21d0 <__ctype_b_loc@plt>
    2aa5:	48 83 c5 01          	add    $0x1,%rbp
    2aa9:	48 0f be db          	movsbq %bl,%rbx
    2aad:	48 8b 00             	mov    (%rax),%rax
    2ab0:	f6 44 58 01 20       	testb  $0x20,0x1(%rax,%rbx,2)
    2ab5:	75 e1                	jne    2a98 <blank_line+0x9>
    2ab7:	b8 00 00 00 00       	mov    $0x0,%eax
    2abc:	eb 05                	jmp    2ac3 <blank_line+0x34>
    2abe:	b8 01 00 00 00       	mov    $0x1,%eax
    2ac3:	48 83 c4 08          	add    $0x8,%rsp
    2ac7:	5b                   	pop    %rbx
    2ac8:	5d                   	pop    %rbp
    2ac9:	c3                   	ret

0000000000002aca <skip>:
    2aca:	55                   	push   %rbp
    2acb:	53                   	push   %rbx
    2acc:	48 83 ec 08          	sub    $0x8,%rsp
    2ad0:	48 8d 2d a9 ed 00 00 	lea    0xeda9(%rip),%rbp        # 11880 <input_strings>
    2ad7:	48 63 15 9a ed 00 00 	movslq 0xed9a(%rip),%rdx        # 11878 <num_input_strings>
    2ade:	48 89 d0             	mov    %rdx,%rax
    2ae1:	48 c1 e0 04          	shl    $0x4,%rax
    2ae5:	48 29 d0             	sub    %rdx,%rax
    2ae8:	48 8d 7c c5 00       	lea    0x0(%rbp,%rax,8),%rdi
    2aed:	48 8b 15 fc ec 00 00 	mov    0xecfc(%rip),%rdx        # 117f0 <infile>
    2af4:	be 78 00 00 00       	mov    $0x78,%esi
    2af9:	e8 f2 f5 ff ff       	call   20f0 <fgets@plt>
    2afe:	48 89 c3             	mov    %rax,%rbx
    2b01:	48 85 c0             	test   %rax,%rax
    2b04:	74 0c                	je     2b12 <skip+0x48>
    2b06:	48 89 c7             	mov    %rax,%rdi
    2b09:	e8 81 ff ff ff       	call   2a8f <blank_line>
    2b0e:	85 c0                	test   %eax,%eax
    2b10:	75 c5                	jne    2ad7 <skip+0xd>
    2b12:	48 89 d8             	mov    %rbx,%rax
    2b15:	48 83 c4 08          	add    $0x8,%rsp
    2b19:	5b                   	pop    %rbx
    2b1a:	5d                   	pop    %rbp
    2b1b:	c3                   	ret

0000000000002b1c <send_msg>:
    2b1c:	53                   	push   %rbx
    2b1d:	48 81 ec 10 40 00 00 	sub    $0x4010,%rsp
    2b24:	64 48 8b 04 25 28 00 	mov    %fs:0x28,%rax
    2b2b:	00 00 
    2b2d:	48 89 84 24 08 40 00 	mov    %rax,0x4008(%rsp)
    2b34:	00 
    2b35:	31 c0                	xor    %eax,%eax
    2b37:	44 8b 05 3a ed 00 00 	mov    0xed3a(%rip),%r8d        # 11878 <num_input_strings>
    2b3e:	41 8d 40 ff          	lea    -0x1(%r8),%eax
    2b42:	48 98                	cltq
    2b44:	48 89 c2             	mov    %rax,%rdx
    2b47:	48 c1 e2 04          	shl    $0x4,%rdx
    2b4b:	48 29 c2             	sub    %rax,%rdx
    2b4e:	85 ff                	test   %edi,%edi
    2b50:	48 8d 0d 2b 19 00 00 	lea    0x192b(%rip),%rcx        # 4482 <array.0+0x2a2>
    2b57:	48 8d 05 2c 19 00 00 	lea    0x192c(%rip),%rax        # 448a <array.0+0x2aa>
    2b5e:	48 0f 44 c8          	cmove  %rax,%rcx
    2b62:	48 89 e3             	mov    %rsp,%rbx
    2b65:	48 8d 05 14 ed 00 00 	lea    0xed14(%rip),%rax        # 11880 <input_strings>
    2b6c:	4c 8d 0c d0          	lea    (%rax,%rdx,8),%r9
    2b70:	8b 15 5e 5f 00 00    	mov    0x5f5e(%rip),%edx        # 8ad4 <bomb_id>
    2b76:	48 8d 35 16 19 00 00 	lea    0x1916(%rip),%rsi        # 4493 <array.0+0x2b3>
    2b7d:	48 89 df             	mov    %rbx,%rdi
    2b80:	b8 00 00 00 00       	mov    $0x0,%eax
    2b85:	e8 06 f6 ff ff       	call   2190 <sprintf@plt>
    2b8a:	4c 8d 84 24 00 20 00 	lea    0x2000(%rsp),%r8
    2b91:	00 
    2b92:	b9 00 00 00 00       	mov    $0x0,%ecx
    2b97:	48 89 da             	mov    %rbx,%rdx
    2b9a:	48 8d 35 0f 5f 00 00 	lea    0x5f0f(%rip),%rsi        # 8ab0 <user_password>
    2ba1:	48 8d 3d 20 5f 00 00 	lea    0x5f20(%rip),%rdi        # 8ac8 <userid>
    2ba8:	e8 c0 0e 00 00       	call   3a6d <driver_post>
    2bad:	85 c0                	test   %eax,%eax
    2baf:	78 1c                	js     2bcd <send_msg+0xb1>
    2bb1:	48 8b 84 24 08 40 00 	mov    0x4008(%rsp),%rax
    2bb8:	00 
    2bb9:	64 48 2b 04 25 28 00 	sub    %fs:0x28,%rax
    2bc0:	00 00 
    2bc2:	75 20                	jne    2be4 <send_msg+0xc8>
    2bc4:	48 81 c4 10 40 00 00 	add    $0x4010,%rsp
    2bcb:	5b                   	pop    %rbx
    2bcc:	c3                   	ret
    2bcd:	48 8d bc 24 00 20 00 	lea    0x2000(%rsp),%rdi
    2bd4:	00 
    2bd5:	e8 96 f4 ff ff       	call   2070 <puts@plt>
    2bda:	bf 00 00 00 00       	mov    $0x0,%edi
    2bdf:	e8 bc f5 ff ff       	call   21a0 <exit@plt>
    2be4:	e8 b7 f4 ff ff       	call   20a0 <__stack_chk_fail@plt>

0000000000002be9 <explode_bomb>:
    2be9:	48 83 ec 08          	sub    $0x8,%rsp
    2bed:	48 8d 3d d4 16 00 00 	lea    0x16d4(%rip),%rdi        # 42c8 <array.0+0xe8>
    2bf4:	e8 77 f4 ff ff       	call   2070 <puts@plt>
    2bf9:	48 8d 3d 9f 18 00 00 	lea    0x189f(%rip),%rdi        # 449f <array.0+0x2bf>
    2c00:	e8 6b f4 ff ff       	call   2070 <puts@plt>
    2c05:	48 8d 3d b0 18 00 00 	lea    0x18b0(%rip),%rdi        # 44bc <array.0+0x2dc>
    2c0c:	e8 5f f4 ff ff       	call   2070 <puts@plt>
    2c11:	48 8d 3d c1 18 00 00 	lea    0x18c1(%rip),%rdi        # 44d9 <array.0+0x2f9>
    2c18:	e8 53 f4 ff ff       	call   2070 <puts@plt>
    2c1d:	48 8d 3d d2 18 00 00 	lea    0x18d2(%rip),%rdi        # 44f6 <array.0+0x316>
    2c24:	e8 47 f4 ff ff       	call   2070 <puts@plt>
    2c29:	48 8d 3d e3 18 00 00 	lea    0x18e3(%rip),%rdi        # 4513 <array.0+0x333>
    2c30:	e8 3b f4 ff ff       	call   2070 <puts@plt>
    2c35:	48 8d 3d f3 18 00 00 	lea    0x18f3(%rip),%rdi        # 452f <array.0+0x34f>
    2c3c:	e8 2f f4 ff ff       	call   2070 <puts@plt>
    2c41:	48 8d 3d 04 19 00 00 	lea    0x1904(%rip),%rdi        # 454c <array.0+0x36c>
    2c48:	e8 23 f4 ff ff       	call   2070 <puts@plt>
    2c4d:	48 8d 3d 15 19 00 00 	lea    0x1915(%rip),%rdi        # 4569 <array.0+0x389>
    2c54:	e8 17 f4 ff ff       	call   2070 <puts@plt>
    2c59:	48 8d 3d 26 19 00 00 	lea    0x1926(%rip),%rdi        # 4586 <array.0+0x3a6>
    2c60:	e8 0b f4 ff ff       	call   2070 <puts@plt>
    2c65:	48 8d 3d 37 19 00 00 	lea    0x1937(%rip),%rdi        # 45a3 <array.0+0x3c3>
    2c6c:	e8 ff f3 ff ff       	call   2070 <puts@plt>
    2c71:	48 8d 3d 48 19 00 00 	lea    0x1948(%rip),%rdi        # 45c0 <array.0+0x3e0>
    2c78:	e8 f3 f3 ff ff       	call   2070 <puts@plt>
    2c7d:	48 8d 3d 59 19 00 00 	lea    0x1959(%rip),%rdi        # 45dd <array.0+0x3fd>
    2c84:	e8 e7 f3 ff ff       	call   2070 <puts@plt>
    2c89:	bf 00 00 00 00       	mov    $0x0,%edi
    2c8e:	e8 89 fe ff ff       	call   2b1c <send_msg>
    2c93:	48 8d 3d 76 16 00 00 	lea    0x1676(%rip),%rdi        # 4310 <array.0+0x130>
    2c9a:	e8 d1 f3 ff ff       	call   2070 <puts@plt>
    2c9f:	bf 08 00 00 00       	mov    $0x8,%edi
    2ca4:	e8 f7 f4 ff ff       	call   21a0 <exit@plt>

0000000000002ca9 <read_six_numbers>:    # (string, array)
    2ca9:	48 83 ec 08          	sub    $0x8,%rsp
    2cad:	48 89 f2             	mov    %rsi,%rdx                # in2 -> arg3
    2cb0:	48 8d 4e 04          	lea    0x4(%rsi),%rcx           # in2+0x4 -> arg4
    2cb4:	48 8d 46 14          	lea    0x14(%rsi),%rax          # in2+0x14 -> ret
    2cb8:	50                   	push   %rax
    2cb9:	48 8d 46 10          	lea    0x10(%rsi),%rax          # in2+0x10 -> ret
    2cbd:	50                   	push   %rax
    2cbe:	4c 8d 4e 0c          	lea    0xc(%rsi),%r9            # in2+0xc -> arg6
    2cc2:	4c 8d 46 08          	lea    0x8(%rsi),%r8            # in2+0x8 -> arg5
    2cc6:	48 8d 35 28 19 00 00 	lea    0x1928(%rip),%rsi        # 45f5 <array.0+0x415>
    2ccd:	b8 00 00 00 00       	mov    $0x0,%eax
    2cd2:	e8 79 f4 ff ff       	call   2150 <__isoc99_sscanf@plt>    # (string, _, in2, in2+0x4, in2+0x8, in2+c)
    2cd7:	48 83 c4 10          	add    $0x10,%rsp
    2cdb:	83 f8 05             	cmp    $0x5,%eax
    2cde:	7e 05                	jle    2ce5 <read_six_numbers+0x3c>  # bomb if 0x5 <= ret
    2ce0:	48 83 c4 08          	add    $0x8,%rsp
    2ce4:	c3                   	ret
    2ce5:	e8 ff fe ff ff       	call   2be9 <explode_bomb>

0000000000002cea <read_line>:
    2cea:	55                   	push   %rbp
    2ceb:	53                   	push   %rbx
    2cec:	48 83 ec 08          	sub    $0x8,%rsp
    2cf0:	b8 00 00 00 00       	mov    $0x0,%eax
    2cf5:	e8 d0 fd ff ff       	call   2aca <skip>
    2cfa:	48 85 c0             	test   %rax,%rax
    2cfd:	74 63                	je     2d62 <read_line+0x78>
    2cff:	8b 1d 73 eb 00 00    	mov    0xeb73(%rip),%ebx        # 11878 <num_input_strings>
    2d05:	48 63 d3             	movslq %ebx,%rdx
    2d08:	48 89 d0             	mov    %rdx,%rax
    2d0b:	48 c1 e0 04          	shl    $0x4,%rax
    2d0f:	48 29 d0             	sub    %rdx,%rax
    2d12:	48 8d 15 67 eb 00 00 	lea    0xeb67(%rip),%rdx        # 11880 <input_strings>
    2d19:	48 8d 2c c2          	lea    (%rdx,%rax,8),%rbp
    2d1d:	48 89 ef             	mov    %rbp,%rdi
    2d20:	e8 6b f3 ff ff       	call   2090 <strlen@plt>
    2d25:	83 f8 76             	cmp    $0x76,%eax
    2d28:	0f 8f ac 00 00 00    	jg     2dda <read_line+0xf0>
    2d2e:	83 e8 01             	sub    $0x1,%eax
    2d31:	48 98                	cltq
    2d33:	48 63 cb             	movslq %ebx,%rcx
    2d36:	48 89 ca             	mov    %rcx,%rdx
    2d39:	48 c1 e2 04          	shl    $0x4,%rdx
    2d3d:	48 29 ca             	sub    %rcx,%rdx
    2d40:	48 8d 0d 39 eb 00 00 	lea    0xeb39(%rip),%rcx        # 11880 <input_strings>
    2d47:	48 8d 14 d1          	lea    (%rcx,%rdx,8),%rdx
    2d4b:	c6 04 02 00          	movb   $0x0,(%rdx,%rax,1)
    2d4f:	83 c3 01             	add    $0x1,%ebx
    2d52:	89 1d 20 eb 00 00    	mov    %ebx,0xeb20(%rip)        # 11878 <num_input_strings>
    2d58:	48 89 e8             	mov    %rbp,%rax
    2d5b:	48 83 c4 08          	add    $0x8,%rsp
    2d5f:	5b                   	pop    %rbx
    2d60:	5d                   	pop    %rbp
    2d61:	c3                   	ret
    2d62:	48 8b 05 67 ea 00 00 	mov    0xea67(%rip),%rax        # 117d0 <stdin@GLIBC_2.2.5>
    2d69:	48 39 05 80 ea 00 00 	cmp    %rax,0xea80(%rip)        # 117f0 <infile>
    2d70:	74 1b                	je     2d8d <read_line+0xa3>
    2d72:	48 8d 3d ac 18 00 00 	lea    0x18ac(%rip),%rdi        # 4625 <array.0+0x445>
    2d79:	e8 b2 f2 ff ff       	call   2030 <getenv@plt>
    2d7e:	48 85 c0             	test   %rax,%rax
    2d81:	74 20                	je     2da3 <read_line+0xb9>
    2d83:	bf 00 00 00 00       	mov    $0x0,%edi
    2d88:	e8 13 f4 ff ff       	call   21a0 <exit@plt>
    2d8d:	48 8d 3d 73 18 00 00 	lea    0x1873(%rip),%rdi        # 4607 <array.0+0x427>
    2d94:	e8 d7 f2 ff ff       	call   2070 <puts@plt>
    2d99:	bf 08 00 00 00       	mov    $0x8,%edi
    2d9e:	e8 fd f3 ff ff       	call   21a0 <exit@plt>
    2da3:	48 8b 05 26 ea 00 00 	mov    0xea26(%rip),%rax        # 117d0 <stdin@GLIBC_2.2.5>
    2daa:	48 89 05 3f ea 00 00 	mov    %rax,0xea3f(%rip)        # 117f0 <infile>
    2db1:	b8 00 00 00 00       	mov    $0x0,%eax
    2db6:	e8 0f fd ff ff       	call   2aca <skip>
    2dbb:	48 85 c0             	test   %rax,%rax
    2dbe:	0f 85 3b ff ff ff    	jne    2cff <read_line+0x15>
    2dc4:	48 8d 3d 3c 18 00 00 	lea    0x183c(%rip),%rdi        # 4607 <array.0+0x427>
    2dcb:	e8 a0 f2 ff ff       	call   2070 <puts@plt>
    2dd0:	bf 00 00 00 00       	mov    $0x0,%edi
    2dd5:	e8 c6 f3 ff ff       	call   21a0 <exit@plt>
    2dda:	48 8d 3d 4f 18 00 00 	lea    0x184f(%rip),%rdi        # 4630 <array.0+0x450>
    2de1:	e8 8a f2 ff ff       	call   2070 <puts@plt>
    2de6:	8b 05 8c ea 00 00    	mov    0xea8c(%rip),%eax        # 11878 <num_input_strings>
    2dec:	8d 50 01             	lea    0x1(%rax),%edx
    2def:	89 15 83 ea 00 00    	mov    %edx,0xea83(%rip)        # 11878 <num_input_strings>
    2df5:	48 98                	cltq
    2df7:	48 6b c0 78          	imul   $0x78,%rax,%rax
    2dfb:	48 8d 15 7e ea 00 00 	lea    0xea7e(%rip),%rdx        # 11880 <input_strings>
    2e02:	48 be 2a 2a 2a 74 72 	movabs $0x636e7572742a2a2a,%rsi
    2e09:	75 6e 63 
    2e0c:	48 bf 61 74 65 64 2a 	movabs $0x2a2a2a64657461,%rdi
    2e13:	2a 2a 00 
    2e16:	48 89 34 02          	mov    %rsi,(%rdx,%rax,1)
    2e1a:	48 89 7c 02 08       	mov    %rdi,0x8(%rdx,%rax,1)
    2e1f:	e8 c5 fd ff ff       	call   2be9 <explode_bomb>

0000000000002e24 <phase_defused>:
    2e24:	48 81 ec 98 00 00 00 	sub    $0x98,%rsp
    2e2b:	64 48 8b 04 25 28 00 	mov    %fs:0x28,%rax
    2e32:	00 00 
    2e34:	48 89 84 24 88 00 00 	mov    %rax,0x88(%rsp)
    2e3b:	00 
    2e3c:	31 c0                	xor    %eax,%eax
    2e3e:	bf 01 00 00 00       	mov    $0x1,%edi
    2e43:	e8 d4 fc ff ff       	call   2b1c <send_msg>
    2e48:	83 3d 29 ea 00 00 06 	cmpl   $0x6,0xea29(%rip)        # 11878 <num_input_strings>
    2e4f:	74 1f                	je     2e70 <phase_defused+0x4c>
    2e51:	48 8b 84 24 88 00 00 	mov    0x88(%rsp),%rax
    2e58:	00 
    2e59:	64 48 2b 04 25 28 00 	sub    %fs:0x28,%rax
    2e60:	00 00 
    2e62:	0f 85 87 00 00 00    	jne    2eef <phase_defused+0xcb>
    2e68:	48 81 c4 98 00 00 00 	add    $0x98,%rsp
    2e6f:	c3                   	ret
    2e70:	48 8d 4c 24 0c       	lea    0xc(%rsp),%rcx
    2e75:	48 8d 54 24 08       	lea    0x8(%rsp),%rdx
    2e7a:	4c 8d 44 24 10       	lea    0x10(%rsp),%r8
    2e7f:	48 8d 35 c5 17 00 00 	lea    0x17c5(%rip),%rsi        # 464b <array.0+0x46b>
    2e86:	48 8d 3d 5b eb 00 00 	lea    0xeb5b(%rip),%rdi        # 119e8 <input_strings+0x168>
    2e8d:	b8 00 00 00 00       	mov    $0x0,%eax
    2e92:	e8 b9 f2 ff ff       	call   2150 <__isoc99_sscanf@plt>
    2e97:	83 f8 03             	cmp    $0x3,%eax
    2e9a:	74 1a                	je     2eb6 <phase_defused+0x92>
    2e9c:	48 8d 3d f5 14 00 00 	lea    0x14f5(%rip),%rdi        # 4398 <array.0+0x1b8>
    2ea3:	e8 c8 f1 ff ff       	call   2070 <puts@plt>
    2ea8:	48 8d 3d 19 15 00 00 	lea    0x1519(%rip),%rdi        # 43c8 <array.0+0x1e8>
    2eaf:	e8 bc f1 ff ff       	call   2070 <puts@plt>
    2eb4:	eb 9b                	jmp    2e51 <phase_defused+0x2d>
    2eb6:	48 8d 7c 24 10       	lea    0x10(%rsp),%rdi
    2ebb:	48 8d 35 92 17 00 00 	lea    0x1792(%rip),%rsi        # 4654 <array.0+0x474>
    2ec2:	e8 46 fa ff ff       	call   290d <strings_not_equal>
    2ec7:	85 c0                	test   %eax,%eax
    2ec9:	75 d1                	jne    2e9c <phase_defused+0x78>
    2ecb:	48 8d 3d 66 14 00 00 	lea    0x1466(%rip),%rdi        # 4338 <array.0+0x158>
    2ed2:	e8 99 f1 ff ff       	call   2070 <puts@plt>
    2ed7:	48 8d 3d 82 14 00 00 	lea    0x1482(%rip),%rdi        # 4360 <array.0+0x180>
    2ede:	e8 8d f1 ff ff       	call   2070 <puts@plt>
    2ee3:	b8 00 00 00 00       	mov    $0x0,%eax
    2ee8:	e8 45 f9 ff ff       	call   2832 <secret_phase>
    2eed:	eb ad                	jmp    2e9c <phase_defused+0x78>
    2eef:	e8 ac f1 ff ff       	call   20a0 <__stack_chk_fail@plt>

0000000000002ef4 <sigalrm_handler>:
    2ef4:	48 83 ec 08          	sub    $0x8,%rsp
    2ef8:	ba 00 00 00 00       	mov    $0x0,%edx
    2efd:	48 8d 35 6c 17 00 00 	lea    0x176c(%rip),%rsi        # 4670 <array.0+0x490>
    2f04:	48 8b 3d d5 e8 00 00 	mov    0xe8d5(%rip),%rdi        # 117e0 <stderr@GLIBC_2.2.5>
    2f0b:	b8 00 00 00 00       	mov    $0x0,%eax
    2f10:	e8 1b f2 ff ff       	call   2130 <fprintf@plt>
    2f15:	bf 01 00 00 00       	mov    $0x1,%edi
    2f1a:	e8 81 f2 ff ff       	call   21a0 <exit@plt>

0000000000002f1f <rio_writen>:
    2f1f:	41 56                	push   %r14
    2f21:	41 55                	push   %r13
    2f23:	41 54                	push   %r12
    2f25:	55                   	push   %rbp
    2f26:	53                   	push   %rbx
    2f27:	49 89 d5             	mov    %rdx,%r13
    2f2a:	48 85 d2             	test   %rdx,%rdx
    2f2d:	74 3b                	je     2f6a <rio_writen+0x4b>
    2f2f:	41 89 fc             	mov    %edi,%r12d
    2f32:	48 89 f5             	mov    %rsi,%rbp
    2f35:	48 89 d3             	mov    %rdx,%rbx
    2f38:	41 be 00 00 00 00    	mov    $0x0,%r14d
    2f3e:	eb 08                	jmp    2f48 <rio_writen+0x29>
    2f40:	48 01 c5             	add    %rax,%rbp
    2f43:	48 29 c3             	sub    %rax,%rbx
    2f46:	74 22                	je     2f6a <rio_writen+0x4b>
    2f48:	48 89 da             	mov    %rbx,%rdx
    2f4b:	48 89 ee             	mov    %rbp,%rsi
    2f4e:	44 89 e7             	mov    %r12d,%edi
    2f51:	e8 2a f1 ff ff       	call   2080 <write@plt>
    2f56:	48 85 c0             	test   %rax,%rax
    2f59:	7f e5                	jg     2f40 <rio_writen+0x21>
    2f5b:	e8 f0 f0 ff ff       	call   2050 <__errno_location@plt>
    2f60:	83 38 04             	cmpl   $0x4,(%rax)
    2f63:	75 11                	jne    2f76 <rio_writen+0x57>
    2f65:	4c 89 f0             	mov    %r14,%rax
    2f68:	eb d6                	jmp    2f40 <rio_writen+0x21>
    2f6a:	4c 89 e8             	mov    %r13,%rax
    2f6d:	5b                   	pop    %rbx
    2f6e:	5d                   	pop    %rbp
    2f6f:	41 5c                	pop    %r12
    2f71:	41 5d                	pop    %r13
    2f73:	41 5e                	pop    %r14
    2f75:	c3                   	ret
    2f76:	48 c7 c0 ff ff ff ff 	mov    $0xffffffffffffffff,%rax
    2f7d:	eb ee                	jmp    2f6d <rio_writen+0x4e>

0000000000002f7f <rio_readlineb>:
    2f7f:	41 56                	push   %r14
    2f81:	41 55                	push   %r13
    2f83:	41 54                	push   %r12
    2f85:	55                   	push   %rbp
    2f86:	53                   	push   %rbx
    2f87:	49 89 f4             	mov    %rsi,%r12
    2f8a:	48 83 fa 01          	cmp    $0x1,%rdx
    2f8e:	0f 86 92 00 00 00    	jbe    3026 <rio_readlineb+0xa7>
    2f94:	48 89 fb             	mov    %rdi,%rbx
    2f97:	4c 8d 74 16 ff       	lea    -0x1(%rsi,%rdx,1),%r14
    2f9c:	41 bd 01 00 00 00    	mov    $0x1,%r13d
    2fa2:	48 8d 6f 10          	lea    0x10(%rdi),%rbp
    2fa6:	eb 56                	jmp    2ffe <rio_readlineb+0x7f>
    2fa8:	e8 a3 f0 ff ff       	call   2050 <__errno_location@plt>
    2fad:	83 38 04             	cmpl   $0x4,(%rax)
    2fb0:	75 55                	jne    3007 <rio_readlineb+0x88>
    2fb2:	ba 00 20 00 00       	mov    $0x2000,%edx
    2fb7:	48 89 ee             	mov    %rbp,%rsi
    2fba:	8b 3b                	mov    (%rbx),%edi
    2fbc:	e8 1f f1 ff ff       	call   20e0 <read@plt>
    2fc1:	89 c2                	mov    %eax,%edx
    2fc3:	89 43 04             	mov    %eax,0x4(%rbx)
    2fc6:	85 c0                	test   %eax,%eax
    2fc8:	78 de                	js     2fa8 <rio_readlineb+0x29>
    2fca:	85 c0                	test   %eax,%eax
    2fcc:	74 42                	je     3010 <rio_readlineb+0x91>
    2fce:	48 89 6b 08          	mov    %rbp,0x8(%rbx)
    2fd2:	48 8b 43 08          	mov    0x8(%rbx),%rax
    2fd6:	0f b6 08             	movzbl (%rax),%ecx
    2fd9:	48 83 c0 01          	add    $0x1,%rax
    2fdd:	48 89 43 08          	mov    %rax,0x8(%rbx)
    2fe1:	83 ea 01             	sub    $0x1,%edx
    2fe4:	89 53 04             	mov    %edx,0x4(%rbx)
    2fe7:	49 83 c4 01          	add    $0x1,%r12
    2feb:	41 88 4c 24 ff       	mov    %cl,-0x1(%r12)
    2ff0:	80 f9 0a             	cmp    $0xa,%cl
    2ff3:	74 3c                	je     3031 <rio_readlineb+0xb2>
    2ff5:	41 83 c5 01          	add    $0x1,%r13d
    2ff9:	4d 39 f4             	cmp    %r14,%r12
    2ffc:	74 30                	je     302e <rio_readlineb+0xaf>
    2ffe:	8b 53 04             	mov    0x4(%rbx),%edx
    3001:	85 d2                	test   %edx,%edx
    3003:	7e ad                	jle    2fb2 <rio_readlineb+0x33>
    3005:	eb cb                	jmp    2fd2 <rio_readlineb+0x53>
    3007:	48 c7 c0 ff ff ff ff 	mov    $0xffffffffffffffff,%rax
    300e:	eb 05                	jmp    3015 <rio_readlineb+0x96>
    3010:	b8 00 00 00 00       	mov    $0x0,%eax
    3015:	85 c0                	test   %eax,%eax
    3017:	75 29                	jne    3042 <rio_readlineb+0xc3>
    3019:	b8 00 00 00 00       	mov    $0x0,%eax
    301e:	41 83 fd 01          	cmp    $0x1,%r13d
    3022:	75 0d                	jne    3031 <rio_readlineb+0xb2>
    3024:	eb 13                	jmp    3039 <rio_readlineb+0xba>
    3026:	41 bd 01 00 00 00    	mov    $0x1,%r13d
    302c:	eb 03                	jmp    3031 <rio_readlineb+0xb2>
    302e:	4d 89 f4             	mov    %r14,%r12
    3031:	41 c6 04 24 00       	movb   $0x0,(%r12)
    3036:	49 63 c5             	movslq %r13d,%rax
    3039:	5b                   	pop    %rbx
    303a:	5d                   	pop    %rbp
    303b:	41 5c                	pop    %r12
    303d:	41 5d                	pop    %r13
    303f:	41 5e                	pop    %r14
    3041:	c3                   	ret
    3042:	48 c7 c0 ff ff ff ff 	mov    $0xffffffffffffffff,%rax
    3049:	eb ee                	jmp    3039 <rio_readlineb+0xba>

000000000000304b <submitr>:
    304b:	41 57                	push   %r15
    304d:	41 56                	push   %r14
    304f:	41 55                	push   %r13
    3051:	41 54                	push   %r12
    3053:	55                   	push   %rbp
    3054:	53                   	push   %rbx
    3055:	48 81 ec 78 a0 00 00 	sub    $0xa078,%rsp
    305c:	48 89 7c 24 08       	mov    %rdi,0x8(%rsp)
    3061:	89 f5                	mov    %esi,%ebp
    3063:	49 89 d4             	mov    %rdx,%r12
    3066:	48 89 4c 24 10       	mov    %rcx,0x10(%rsp)
    306b:	4c 89 44 24 20       	mov    %r8,0x20(%rsp)
    3070:	4c 89 4c 24 18       	mov    %r9,0x18(%rsp)
    3075:	48 8b 9c 24 b0 a0 00 	mov    0xa0b0(%rsp),%rbx
    307c:	00 
    307d:	4c 8b bc 24 b8 a0 00 	mov    0xa0b8(%rsp),%r15
    3084:	00 
    3085:	64 48 8b 04 25 28 00 	mov    %fs:0x28,%rax
    308c:	00 00 
    308e:	48 89 84 24 68 a0 00 	mov    %rax,0xa068(%rsp)
    3095:	00 
    3096:	31 c0                	xor    %eax,%eax
    3098:	c7 44 24 3c 00 00 00 	movl   $0x0,0x3c(%rsp)
    309f:	00 
    30a0:	ba 00 00 00 00       	mov    $0x0,%edx
    30a5:	be 01 00 00 00       	mov    $0x1,%esi
    30aa:	bf 02 00 00 00       	mov    $0x2,%edi
    30af:	e8 2c f1 ff ff       	call   21e0 <socket@plt>
    30b4:	85 c0                	test   %eax,%eax
    30b6:	0f 88 0d 01 00 00    	js     31c9 <submitr+0x17e>
    30bc:	41 89 c6             	mov    %eax,%r14d
    30bf:	48 8b 7c 24 08       	mov    0x8(%rsp),%rdi
    30c4:	e8 57 f0 ff ff       	call   2120 <gethostbyname@plt>
    30c9:	48 85 c0             	test   %rax,%rax
    30cc:	0f 84 47 01 00 00    	je     3219 <submitr+0x1ce>
    30d2:	4c 8d 6c 24 40       	lea    0x40(%rsp),%r13
    30d7:	48 c7 44 24 40 00 00 	movq   $0x0,0x40(%rsp)
    30de:	00 00 
    30e0:	48 c7 44 24 48 00 00 	movq   $0x0,0x48(%rsp)
    30e7:	00 00 
    30e9:	66 c7 44 24 40 02 00 	movw   $0x2,0x40(%rsp)
    30f0:	48 63 50 14          	movslq 0x14(%rax),%rdx
    30f4:	48 8b 40 18          	mov    0x18(%rax),%rax
    30f8:	48 8d 7c 24 44       	lea    0x44(%rsp),%rdi
    30fd:	48 8b 30             	mov    (%rax),%rsi
    3100:	e8 5b f0 ff ff       	call   2160 <memmove@plt>
    3105:	66 c1 c5 08          	rol    $0x8,%bp
    3109:	66 89 6c 24 42       	mov    %bp,0x42(%rsp)
    310e:	ba 10 00 00 00       	mov    $0x10,%edx
    3113:	4c 89 ee             	mov    %r13,%rsi
    3116:	44 89 f7             	mov    %r14d,%edi
    3119:	e8 92 f0 ff ff       	call   21b0 <connect@plt>
    311e:	85 c0                	test   %eax,%eax
    3120:	0f 88 5e 01 00 00    	js     3284 <submitr+0x239>
    3126:	48 89 df             	mov    %rbx,%rdi
    3129:	e8 62 ef ff ff       	call   2090 <strlen@plt>
    312e:	48 89 c5             	mov    %rax,%rbp
    3131:	4c 89 e7             	mov    %r12,%rdi
    3134:	e8 57 ef ff ff       	call   2090 <strlen@plt>
    3139:	49 89 c5             	mov    %rax,%r13
    313c:	48 8b 7c 24 10       	mov    0x10(%rsp),%rdi
    3141:	e8 4a ef ff ff       	call   2090 <strlen@plt>
    3146:	49 89 c4             	mov    %rax,%r12
    3149:	48 8b 7c 24 18       	mov    0x18(%rsp),%rdi
    314e:	e8 3d ef ff ff       	call   2090 <strlen@plt>
    3153:	48 89 c2             	mov    %rax,%rdx
    3156:	4b 8d 84 25 80 00 00 	lea    0x80(%r13,%r12,1),%rax
    315d:	00 
    315e:	48 01 d0             	add    %rdx,%rax
    3161:	48 8d 54 6d 00       	lea    0x0(%rbp,%rbp,2),%rdx
    3166:	48 01 d0             	add    %rdx,%rax
    3169:	48 3d 00 20 00 00    	cmp    $0x2000,%rax
    316f:	0f 87 6c 01 00 00    	ja     32e1 <submitr+0x296>
    3175:	48 8d 94 24 60 40 00 	lea    0x4060(%rsp),%rdx
    317c:	00 
    317d:	b9 00 04 00 00       	mov    $0x400,%ecx
    3182:	b8 00 00 00 00       	mov    $0x0,%eax
    3187:	48 89 d7             	mov    %rdx,%rdi
    318a:	f3 48 ab             	rep stos %rax,%es:(%rdi)
    318d:	48 89 df             	mov    %rbx,%rdi
    3190:	e8 fb ee ff ff       	call   2090 <strlen@plt>
    3195:	85 c0                	test   %eax,%eax
    3197:	0f 84 13 05 00 00    	je     36b0 <submitr+0x665>
    319d:	8d 40 ff             	lea    -0x1(%rax),%eax
    31a0:	4c 8d 64 03 01       	lea    0x1(%rbx,%rax,1),%r12
    31a5:	48 8d ac 24 60 40 00 	lea    0x4060(%rsp),%rbp
    31ac:	00 
    31ad:	48 8d 84 24 60 80 00 	lea    0x8060(%rsp),%rax
    31b4:	00 
    31b5:	48 89 44 24 28       	mov    %rax,0x28(%rsp)
    31ba:	49 bd d9 ff 00 00 00 	movabs $0x2000000000ffd9,%r13
    31c1:	00 20 00 
    31c4:	e9 a5 01 00 00       	jmp    336e <submitr+0x323>
    31c9:	48 b8 45 72 72 6f 72 	movabs $0x43203a726f727245,%rax
    31d0:	3a 20 43 
    31d3:	48 ba 6c 69 65 6e 74 	movabs $0x6e7520746e65696c,%rdx
    31da:	20 75 6e 
    31dd:	49 89 07             	mov    %rax,(%r15)
    31e0:	49 89 57 08          	mov    %rdx,0x8(%r15)
    31e4:	48 b8 61 62 6c 65 20 	movabs $0x206f7420656c6261,%rax
    31eb:	74 6f 20 
    31ee:	48 ba 63 72 65 61 74 	movabs $0x7320657461657263,%rdx
    31f5:	65 20 73 
    31f8:	49 89 47 10          	mov    %rax,0x10(%r15)
    31fc:	49 89 57 18          	mov    %rdx,0x18(%r15)
    3200:	41 c7 47 20 6f 63 6b 	movl   $0x656b636f,0x20(%r15)
    3207:	65 
    3208:	66 41 c7 47 24 74 00 	movw   $0x74,0x24(%r15)
    320f:	b8 ff ff ff ff       	mov    $0xffffffff,%eax
    3214:	e9 6e 03 00 00       	jmp    3587 <submitr+0x53c>
    3219:	48 b8 45 72 72 6f 72 	movabs $0x44203a726f727245,%rax
    3220:	3a 20 44 
    3223:	48 ba 4e 53 20 69 73 	movabs $0x6e7520736920534e,%rdx
    322a:	20 75 6e 
    322d:	49 89 07             	mov    %rax,(%r15)
    3230:	49 89 57 08          	mov    %rdx,0x8(%r15)
    3234:	48 b8 61 62 6c 65 20 	movabs $0x206f7420656c6261,%rax
    323b:	74 6f 20 
    323e:	48 ba 72 65 73 6f 6c 	movabs $0x2065766c6f736572,%rdx
    3245:	76 65 20 
    3248:	49 89 47 10          	mov    %rax,0x10(%r15)
    324c:	49 89 57 18          	mov    %rdx,0x18(%r15)
    3250:	48 b8 73 65 72 76 65 	movabs $0x6120726576726573,%rax
    3257:	72 20 61 
    325a:	49 89 47 20          	mov    %rax,0x20(%r15)
    325e:	41 c7 47 28 64 64 72 	movl   $0x65726464,0x28(%r15)
    3265:	65 
    3266:	66 41 c7 47 2c 73 73 	movw   $0x7373,0x2c(%r15)
    326d:	41 c6 47 2e 00       	movb   $0x0,0x2e(%r15)
    3272:	44 89 f7             	mov    %r14d,%edi
    3275:	e8 56 ee ff ff       	call   20d0 <close@plt>
    327a:	b8 ff ff ff ff       	mov    $0xffffffff,%eax
    327f:	e9 03 03 00 00       	jmp    3587 <submitr+0x53c>
    3284:	48 b8 45 72 72 6f 72 	movabs $0x55203a726f727245,%rax
    328b:	3a 20 55 
    328e:	48 ba 6e 61 62 6c 65 	movabs $0x6f7420656c62616e,%rdx
    3295:	20 74 6f 
    3298:	49 89 07             	mov    %rax,(%r15)
    329b:	49 89 57 08          	mov    %rdx,0x8(%r15)
    329f:	48 b8 20 63 6f 6e 6e 	movabs $0x7463656e6e6f6320,%rax
    32a6:	65 63 74 
    32a9:	48 ba 20 74 6f 20 74 	movabs $0x20656874206f7420,%rdx
    32b0:	68 65 20 
    32b3:	49 89 47 10          	mov    %rax,0x10(%r15)
    32b7:	49 89 57 18          	mov    %rdx,0x18(%r15)
    32bb:	41 c7 47 20 73 65 72 	movl   $0x76726573,0x20(%r15)
    32c2:	76 
    32c3:	66 41 c7 47 24 65 72 	movw   $0x7265,0x24(%r15)
    32ca:	41 c6 47 26 00       	movb   $0x0,0x26(%r15)
    32cf:	44 89 f7             	mov    %r14d,%edi
    32d2:	e8 f9 ed ff ff       	call   20d0 <close@plt>
    32d7:	b8 ff ff ff ff       	mov    $0xffffffff,%eax
    32dc:	e9 a6 02 00 00       	jmp    3587 <submitr+0x53c>
    32e1:	48 b8 45 72 72 6f 72 	movabs $0x52203a726f727245,%rax
    32e8:	3a 20 52 
    32eb:	48 ba 65 73 75 6c 74 	movabs $0x747320746c757365,%rdx
    32f2:	20 73 74 
    32f5:	49 89 07             	mov    %rax,(%r15)
    32f8:	49 89 57 08          	mov    %rdx,0x8(%r15)
    32fc:	48 b8 72 69 6e 67 20 	movabs $0x6f6f7420676e6972,%rax
    3303:	74 6f 6f 
    3306:	48 ba 20 6c 61 72 67 	movabs $0x202e656772616c20,%rdx
    330d:	65 2e 20 
    3310:	49 89 47 10          	mov    %rax,0x10(%r15)
    3314:	49 89 57 18          	mov    %rdx,0x18(%r15)
    3318:	48 b8 49 6e 63 72 65 	movabs $0x6573616572636e49,%rax
    331f:	61 73 65 
    3322:	48 ba 20 53 55 42 4d 	movabs $0x5254494d42555320,%rdx
    3329:	49 54 52 
    332c:	49 89 47 20          	mov    %rax,0x20(%r15)
    3330:	49 89 57 28          	mov    %rdx,0x28(%r15)
    3334:	48 b8 5f 4d 41 58 42 	movabs $0x46554258414d5f,%rax
    333b:	55 46 00 
    333e:	49 89 47 30          	mov    %rax,0x30(%r15)
    3342:	44 89 f7             	mov    %r14d,%edi
    3345:	e8 86 ed ff ff       	call   20d0 <close@plt>
    334a:	b8 ff ff ff ff       	mov    $0xffffffff,%eax
    334f:	e9 33 02 00 00       	jmp    3587 <submitr+0x53c>
    3354:	49 0f a3 c5          	bt     %rax,%r13
    3358:	73 1e                	jae    3378 <submitr+0x32d>
    335a:	88 55 00             	mov    %dl,0x0(%rbp)
    335d:	48 8d 6d 01          	lea    0x1(%rbp),%rbp
    3361:	48 83 c3 01          	add    $0x1,%rbx
    3365:	4c 39 e3             	cmp    %r12,%rbx
    3368:	0f 84 42 03 00 00    	je     36b0 <submitr+0x665>
    336e:	0f b6 13             	movzbl (%rbx),%edx
    3371:	8d 42 d6             	lea    -0x2a(%rdx),%eax
    3374:	3c 35                	cmp    $0x35,%al
    3376:	76 dc                	jbe    3354 <submitr+0x309>
    3378:	89 d0                	mov    %edx,%eax
    337a:	83 e0 df             	and    $0xffffffdf,%eax
    337d:	83 e8 41             	sub    $0x41,%eax
    3380:	3c 19                	cmp    $0x19,%al
    3382:	76 d6                	jbe    335a <submitr+0x30f>
    3384:	80 fa 20             	cmp    $0x20,%dl
    3387:	74 50                	je     33d9 <submitr+0x38e>
    3389:	8d 42 e0             	lea    -0x20(%rdx),%eax
    338c:	3c 5f                	cmp    $0x5f,%al
    338e:	76 09                	jbe    3399 <submitr+0x34e>
    3390:	80 fa 09             	cmp    $0x9,%dl
    3393:	0f 85 8a 02 00 00    	jne    3623 <submitr+0x5d8>
    3399:	0f b6 d2             	movzbl %dl,%edx
    339c:	48 8d 35 9b 13 00 00 	lea    0x139b(%rip),%rsi        # 473e <array.0+0x55e>
    33a3:	48 8b 7c 24 28       	mov    0x28(%rsp),%rdi
    33a8:	b8 00 00 00 00       	mov    $0x0,%eax
    33ad:	e8 de ed ff ff       	call   2190 <sprintf@plt>
    33b2:	0f b6 84 24 60 80 00 	movzbl 0x8060(%rsp),%eax
    33b9:	00 
    33ba:	88 45 00             	mov    %al,0x0(%rbp)
    33bd:	0f b6 84 24 61 80 00 	movzbl 0x8061(%rsp),%eax
    33c4:	00 
    33c5:	88 45 01             	mov    %al,0x1(%rbp)
    33c8:	0f b6 84 24 62 80 00 	movzbl 0x8062(%rsp),%eax
    33cf:	00 
    33d0:	88 45 02             	mov    %al,0x2(%rbp)
    33d3:	48 8d 6d 03          	lea    0x3(%rbp),%rbp
    33d7:	eb 88                	jmp    3361 <submitr+0x316>
    33d9:	c6 45 00 2b          	movb   $0x2b,0x0(%rbp)
    33dd:	48 8d 6d 01          	lea    0x1(%rbp),%rbp
    33e1:	e9 7b ff ff ff       	jmp    3361 <submitr+0x316>
    33e6:	48 b8 45 72 72 6f 72 	movabs $0x43203a726f727245,%rax
    33ed:	3a 20 43 
    33f0:	48 ba 6c 69 65 6e 74 	movabs $0x6e7520746e65696c,%rdx
    33f7:	20 75 6e 
    33fa:	49 89 07             	mov    %rax,(%r15)
    33fd:	49 89 57 08          	mov    %rdx,0x8(%r15)
    3401:	48 b8 61 62 6c 65 20 	movabs $0x206f7420656c6261,%rax
    3408:	74 6f 20 
    340b:	48 ba 77 72 69 74 65 	movabs $0x6f74206574697277,%rdx
    3412:	20 74 6f 
    3415:	49 89 47 10          	mov    %rax,0x10(%r15)
    3419:	49 89 57 18          	mov    %rdx,0x18(%r15)
    341d:	48 b8 20 74 68 65 20 	movabs $0x7265732065687420,%rax
    3424:	73 65 72 
    3427:	49 89 47 20          	mov    %rax,0x20(%r15)
    342b:	41 c7 47 28 76 65 72 	movl   $0x726576,0x28(%r15)
    3432:	00 
    3433:	44 89 f7             	mov    %r14d,%edi
    3436:	e8 95 ec ff ff       	call   20d0 <close@plt>
    343b:	b8 ff ff ff ff       	mov    $0xffffffff,%eax
    3440:	e9 42 01 00 00       	jmp    3587 <submitr+0x53c>
    3445:	48 b8 45 72 72 6f 72 	movabs $0x43203a726f727245,%rax
    344c:	3a 20 43 
    344f:	48 ba 6c 69 65 6e 74 	movabs $0x6e7520746e65696c,%rdx
    3456:	20 75 6e 
    3459:	49 89 07             	mov    %rax,(%r15)
    345c:	49 89 57 08          	mov    %rdx,0x8(%r15)
    3460:	48 b8 61 62 6c 65 20 	movabs $0x206f7420656c6261,%rax
    3467:	74 6f 20 
    346a:	48 ba 77 72 69 74 65 	movabs $0x6f74206574697277,%rdx
    3471:	20 74 6f 
    3474:	49 89 47 10          	mov    %rax,0x10(%r15)
    3478:	49 89 57 18          	mov    %rdx,0x18(%r15)
    347c:	48 b8 20 74 68 65 20 	movabs $0x7265732065687420,%rax
    3483:	73 65 72 
    3486:	49 89 47 20          	mov    %rax,0x20(%r15)
    348a:	41 c7 47 28 76 65 72 	movl   $0x726576,0x28(%r15)
    3491:	00 
    3492:	44 89 f7             	mov    %r14d,%edi
    3495:	e8 36 ec ff ff       	call   20d0 <close@plt>
    349a:	b8 ff ff ff ff       	mov    $0xffffffff,%eax
    349f:	e9 e3 00 00 00       	jmp    3587 <submitr+0x53c>
    34a4:	48 b8 45 72 72 6f 72 	movabs $0x43203a726f727245,%rax
    34ab:	3a 20 43 
    34ae:	48 ba 6c 69 65 6e 74 	movabs $0x6e7520746e65696c,%rdx
    34b5:	20 75 6e 
    34b8:	49 89 07             	mov    %rax,(%r15)
    34bb:	49 89 57 08          	mov    %rdx,0x8(%r15)
    34bf:	48 b8 61 62 6c 65 20 	movabs $0x206f7420656c6261,%rax
    34c6:	74 6f 20 
    34c9:	48 ba 72 65 61 64 20 	movabs $0x7269662064616572,%rdx
    34d0:	66 69 72 
    34d3:	49 89 47 10          	mov    %rax,0x10(%r15)
    34d7:	49 89 57 18          	mov    %rdx,0x18(%r15)
    34db:	48 b8 73 74 20 68 65 	movabs $0x6564616568207473,%rax
    34e2:	61 64 65 
    34e5:	48 ba 72 20 66 72 6f 	movabs $0x73206d6f72662072,%rdx
    34ec:	6d 20 73 
    34ef:	49 89 47 20          	mov    %rax,0x20(%r15)
    34f3:	49 89 57 28          	mov    %rdx,0x28(%r15)
    34f7:	41 c7 47 30 65 72 76 	movl   $0x65767265,0x30(%r15)
    34fe:	65 
    34ff:	66 41 c7 47 34 72 00 	movw   $0x72,0x34(%r15)
    3506:	44 89 f7             	mov    %r14d,%edi
    3509:	e8 c2 eb ff ff       	call   20d0 <close@plt>
    350e:	b8 ff ff ff ff       	mov    $0xffffffff,%eax
    3513:	eb 72                	jmp    3587 <submitr+0x53c>
    3515:	48 8d 8c 24 60 80 00 	lea    0x8060(%rsp),%rcx
    351c:	00 
    351d:	48 8d 35 74 11 00 00 	lea    0x1174(%rip),%rsi        # 4698 <array.0+0x4b8>
    3524:	4c 89 ff             	mov    %r15,%rdi
    3527:	b8 00 00 00 00       	mov    $0x0,%eax
    352c:	e8 5f ec ff ff       	call   2190 <sprintf@plt>
    3531:	44 89 f7             	mov    %r14d,%edi
    3534:	e8 97 eb ff ff       	call   20d0 <close@plt>
    3539:	b8 ff ff ff ff       	mov    $0xffffffff,%eax
    353e:	eb 47                	jmp    3587 <submitr+0x53c>
    3540:	48 8d b4 24 60 20 00 	lea    0x2060(%rsp),%rsi
    3547:	00 
    3548:	48 8d 7c 24 50       	lea    0x50(%rsp),%rdi
    354d:	ba 00 20 00 00       	mov    $0x2000,%edx
    3552:	e8 28 fa ff ff       	call   2f7f <rio_readlineb>
    3557:	48 85 c0             	test   %rax,%rax
    355a:	7e 54                	jle    35b0 <submitr+0x565>
    355c:	48 8d b4 24 60 20 00 	lea    0x2060(%rsp),%rsi
    3563:	00 
    3564:	4c 89 ff             	mov    %r15,%rdi
    3567:	e8 f4 ea ff ff       	call   2060 <strcpy@plt>
    356c:	44 89 f7             	mov    %r14d,%edi
    356f:	e8 5c eb ff ff       	call   20d0 <close@plt>
    3574:	48 8d 35 e8 11 00 00 	lea    0x11e8(%rip),%rsi        # 4763 <array.0+0x583>
    357b:	4c 89 ff             	mov    %r15,%rdi
    357e:	e8 7d eb ff ff       	call   2100 <strcmp@plt>
    3583:	f7 d8                	neg    %eax
    3585:	19 c0                	sbb    %eax,%eax
    3587:	48 8b 94 24 68 a0 00 	mov    0xa068(%rsp),%rdx
    358e:	00 
    358f:	64 48 2b 14 25 28 00 	sub    %fs:0x28,%rdx
    3596:	00 00 
    3598:	0f 85 be 02 00 00    	jne    385c <submitr+0x811>
    359e:	48 81 c4 78 a0 00 00 	add    $0xa078,%rsp
    35a5:	5b                   	pop    %rbx
    35a6:	5d                   	pop    %rbp
    35a7:	41 5c                	pop    %r12
    35a9:	41 5d                	pop    %r13
    35ab:	41 5e                	pop    %r14
    35ad:	41 5f                	pop    %r15
    35af:	c3                   	ret
    35b0:	48 b8 45 72 72 6f 72 	movabs $0x43203a726f727245,%rax
    35b7:	3a 20 43 
    35ba:	48 ba 6c 69 65 6e 74 	movabs $0x6e7520746e65696c,%rdx
    35c1:	20 75 6e 
    35c4:	49 89 07             	mov    %rax,(%r15)
    35c7:	49 89 57 08          	mov    %rdx,0x8(%r15)
    35cb:	48 b8 61 62 6c 65 20 	movabs $0x206f7420656c6261,%rax
    35d2:	74 6f 20 
    35d5:	48 ba 72 65 61 64 20 	movabs $0x6174732064616572,%rdx
    35dc:	73 74 61 
    35df:	49 89 47 10          	mov    %rax,0x10(%r15)
    35e3:	49 89 57 18          	mov    %rdx,0x18(%r15)
    35e7:	48 b8 74 75 73 20 6d 	movabs $0x7373656d20737574,%rax
    35ee:	65 73 73 
    35f1:	48 ba 61 67 65 20 66 	movabs $0x6d6f726620656761,%rdx
    35f8:	72 6f 6d 
    35fb:	49 89 47 20          	mov    %rax,0x20(%r15)
    35ff:	49 89 57 28          	mov    %rdx,0x28(%r15)
    3603:	48 b8 20 73 65 72 76 	movabs $0x72657672657320,%rax
    360a:	65 72 00 
    360d:	49 89 47 30          	mov    %rax,0x30(%r15)
    3611:	44 89 f7             	mov    %r14d,%edi
    3614:	e8 b7 ea ff ff       	call   20d0 <close@plt>
    3619:	b8 ff ff ff ff       	mov    $0xffffffff,%eax
    361e:	e9 64 ff ff ff       	jmp    3587 <submitr+0x53c>
    3623:	48 b8 45 72 72 6f 72 	movabs $0x52203a726f727245,%rax
    362a:	3a 20 52 
    362d:	48 ba 65 73 75 6c 74 	movabs $0x747320746c757365,%rdx
    3634:	20 73 74 
    3637:	49 89 07             	mov    %rax,(%r15)
    363a:	49 89 57 08          	mov    %rdx,0x8(%r15)
    363e:	48 b8 72 69 6e 67 20 	movabs $0x6e6f6320676e6972,%rax
    3645:	63 6f 6e 
    3648:	48 ba 74 61 69 6e 73 	movabs $0x6e6120736e696174,%rdx
    364f:	20 61 6e 
    3652:	49 89 47 10          	mov    %rax,0x10(%r15)
    3656:	49 89 57 18          	mov    %rdx,0x18(%r15)
    365a:	48 b8 20 69 6c 6c 65 	movabs $0x6c6167656c6c6920,%rax
    3661:	67 61 6c 
    3664:	48 ba 20 6f 72 20 75 	movabs $0x72706e7520726f20,%rdx
    366b:	6e 70 72 
    366e:	49 89 47 20          	mov    %rax,0x20(%r15)
    3672:	49 89 57 28          	mov    %rdx,0x28(%r15)
    3676:	48 b8 69 6e 74 61 62 	movabs $0x20656c6261746e69,%rax
    367d:	6c 65 20 
    3680:	48 ba 63 68 61 72 61 	movabs $0x6574636172616863,%rdx
    3687:	63 74 65 
    368a:	49 89 47 30          	mov    %rax,0x30(%r15)
    368e:	49 89 57 38          	mov    %rdx,0x38(%r15)
    3692:	66 41 c7 47 40 72 2e 	movw   $0x2e72,0x40(%r15)
    3699:	41 c6 47 42 00       	movb   $0x0,0x42(%r15)
    369e:	44 89 f7             	mov    %r14d,%edi
    36a1:	e8 2a ea ff ff       	call   20d0 <close@plt>
    36a6:	b8 ff ff ff ff       	mov    $0xffffffff,%eax
    36ab:	e9 d7 fe ff ff       	jmp    3587 <submitr+0x53c>
    36b0:	48 8d 9c 24 60 20 00 	lea    0x2060(%rsp),%rbx
    36b7:	00 
    36b8:	4c 8d 8c 24 60 40 00 	lea    0x4060(%rsp),%r9
    36bf:	00 
    36c0:	4c 8b 44 24 18       	mov    0x18(%rsp),%r8
    36c5:	48 8b 4c 24 20       	mov    0x20(%rsp),%rcx
    36ca:	48 8b 54 24 10       	mov    0x10(%rsp),%rdx
    36cf:	48 8d 35 f2 0f 00 00 	lea    0xff2(%rip),%rsi        # 46c8 <array.0+0x4e8>
    36d6:	48 89 df             	mov    %rbx,%rdi
    36d9:	b8 00 00 00 00       	mov    $0x0,%eax
    36de:	e8 ad ea ff ff       	call   2190 <sprintf@plt>
    36e3:	48 89 df             	mov    %rbx,%rdi
    36e6:	e8 a5 e9 ff ff       	call   2090 <strlen@plt>
    36eb:	48 89 c2             	mov    %rax,%rdx
    36ee:	48 89 de             	mov    %rbx,%rsi
    36f1:	44 89 f7             	mov    %r14d,%edi
    36f4:	e8 26 f8 ff ff       	call   2f1f <rio_writen>
    36f9:	48 85 c0             	test   %rax,%rax
    36fc:	0f 88 e4 fc ff ff    	js     33e6 <submitr+0x39b>
    3702:	48 8d 9c 24 60 20 00 	lea    0x2060(%rsp),%rbx
    3709:	00 
    370a:	48 8b 54 24 08       	mov    0x8(%rsp),%rdx
    370f:	48 8d 35 2f 10 00 00 	lea    0x102f(%rip),%rsi        # 4745 <array.0+0x565>
    3716:	48 89 df             	mov    %rbx,%rdi
    3719:	b8 00 00 00 00       	mov    $0x0,%eax
    371e:	e8 6d ea ff ff       	call   2190 <sprintf@plt>
    3723:	48 89 df             	mov    %rbx,%rdi
    3726:	e8 65 e9 ff ff       	call   2090 <strlen@plt>
    372b:	48 89 c2             	mov    %rax,%rdx
    372e:	48 89 de             	mov    %rbx,%rsi
    3731:	44 89 f7             	mov    %r14d,%edi
    3734:	e8 e6 f7 ff ff       	call   2f1f <rio_writen>
    3739:	48 85 c0             	test   %rax,%rax
    373c:	0f 88 03 fd ff ff    	js     3445 <submitr+0x3fa>
    3742:	44 89 74 24 50       	mov    %r14d,0x50(%rsp)
    3747:	c7 44 24 54 00 00 00 	movl   $0x0,0x54(%rsp)
    374e:	00 
    374f:	48 8d 7c 24 50       	lea    0x50(%rsp),%rdi
    3754:	48 8d 44 24 60       	lea    0x60(%rsp),%rax
    3759:	48 89 44 24 58       	mov    %rax,0x58(%rsp)
    375e:	48 8d b4 24 60 20 00 	lea    0x2060(%rsp),%rsi
    3765:	00 
    3766:	ba 00 20 00 00       	mov    $0x2000,%edx
    376b:	e8 0f f8 ff ff       	call   2f7f <rio_readlineb>
    3770:	48 85 c0             	test   %rax,%rax
    3773:	0f 8e 2b fd ff ff    	jle    34a4 <submitr+0x459>
    3779:	48 8d 4c 24 3c       	lea    0x3c(%rsp),%rcx
    377e:	48 8d 94 24 60 60 00 	lea    0x6060(%rsp),%rdx
    3785:	00 
    3786:	48 8d bc 24 60 20 00 	lea    0x2060(%rsp),%rdi
    378d:	00 
    378e:	4c 8d 84 24 60 80 00 	lea    0x8060(%rsp),%r8
    3795:	00 
    3796:	48 8d 35 b5 0f 00 00 	lea    0xfb5(%rip),%rsi        # 4752 <array.0+0x572>
    379d:	b8 00 00 00 00       	mov    $0x0,%eax
    37a2:	e8 a9 e9 ff ff       	call   2150 <__isoc99_sscanf@plt>
    37a7:	8b 54 24 3c          	mov    0x3c(%rsp),%edx
    37ab:	81 fa c8 00 00 00    	cmp    $0xc8,%edx
    37b1:	0f 85 5e fd ff ff    	jne    3515 <submitr+0x4ca>
    37b7:	48 8d 1d 91 0f 00 00 	lea    0xf91(%rip),%rbx        # 474f <array.0+0x56f>
    37be:	48 8d bc 24 60 20 00 	lea    0x2060(%rsp),%rdi
    37c5:	00 
    37c6:	48 89 de             	mov    %rbx,%rsi
    37c9:	e8 32 e9 ff ff       	call   2100 <strcmp@plt>
    37ce:	85 c0                	test   %eax,%eax
    37d0:	0f 84 6a fd ff ff    	je     3540 <submitr+0x4f5>
    37d6:	48 8d b4 24 60 20 00 	lea    0x2060(%rsp),%rsi
    37dd:	00 
    37de:	48 8d 7c 24 50       	lea    0x50(%rsp),%rdi
    37e3:	ba 00 20 00 00       	mov    $0x2000,%edx
    37e8:	e8 92 f7 ff ff       	call   2f7f <rio_readlineb>
    37ed:	48 85 c0             	test   %rax,%rax
    37f0:	7f cc                	jg     37be <submitr+0x773>
    37f2:	48 b8 45 72 72 6f 72 	movabs $0x43203a726f727245,%rax
    37f9:	3a 20 43 
    37fc:	48 ba 6c 69 65 6e 74 	movabs $0x6e7520746e65696c,%rdx
    3803:	20 75 6e 
    3806:	49 89 07             	mov    %rax,(%r15)
    3809:	49 89 57 08          	mov    %rdx,0x8(%r15)
    380d:	48 b8 61 62 6c 65 20 	movabs $0x206f7420656c6261,%rax
    3814:	74 6f 20 
    3817:	48 ba 72 65 61 64 20 	movabs $0x6165682064616572,%rdx
    381e:	68 65 61 
    3821:	49 89 47 10          	mov    %rax,0x10(%r15)
    3825:	49 89 57 18          	mov    %rdx,0x18(%r15)
    3829:	48 b8 64 65 72 73 20 	movabs $0x6f72662073726564,%rax
    3830:	66 72 6f 
    3833:	48 ba 6d 20 73 65 72 	movabs $0x726576726573206d,%rdx
    383a:	76 65 72 
    383d:	49 89 47 20          	mov    %rax,0x20(%r15)
    3841:	49 89 57 28          	mov    %rdx,0x28(%r15)
    3845:	41 c6 47 30 00       	movb   $0x0,0x30(%r15)
    384a:	44 89 f7             	mov    %r14d,%edi
    384d:	e8 7e e8 ff ff       	call   20d0 <close@plt>
    3852:	b8 ff ff ff ff       	mov    $0xffffffff,%eax
    3857:	e9 2b fd ff ff       	jmp    3587 <submitr+0x53c>
    385c:	e8 3f e8 ff ff       	call   20a0 <__stack_chk_fail@plt>

0000000000003861 <init_timeout>:
    3861:	85 ff                	test   %edi,%edi
    3863:	75 01                	jne    3866 <init_timeout+0x5>
    3865:	c3                   	ret
    3866:	53                   	push   %rbx
    3867:	89 fb                	mov    %edi,%ebx
    3869:	48 8d 35 84 f6 ff ff 	lea    -0x97c(%rip),%rsi        # 2ef4 <sigalrm_handler>
    3870:	bf 0e 00 00 00       	mov    $0xe,%edi
    3875:	e8 96 e8 ff ff       	call   2110 <signal@plt>
    387a:	85 db                	test   %ebx,%ebx
    387c:	b8 00 00 00 00       	mov    $0x0,%eax
    3881:	0f 49 c3             	cmovns %ebx,%eax
    3884:	89 c7                	mov    %eax,%edi
    3886:	e8 35 e8 ff ff       	call   20c0 <alarm@plt>
    388b:	5b                   	pop    %rbx
    388c:	c3                   	ret

000000000000388d <init_driver>:
    388d:	41 54                	push   %r12
    388f:	55                   	push   %rbp
    3890:	53                   	push   %rbx
    3891:	48 83 ec 20          	sub    $0x20,%rsp
    3895:	48 89 fd             	mov    %rdi,%rbp
    3898:	64 48 8b 04 25 28 00 	mov    %fs:0x28,%rax
    389f:	00 00 
    38a1:	48 89 44 24 18       	mov    %rax,0x18(%rsp)
    38a6:	31 c0                	xor    %eax,%eax
    38a8:	be 01 00 00 00       	mov    $0x1,%esi
    38ad:	bf 0d 00 00 00       	mov    $0xd,%edi
    38b2:	e8 59 e8 ff ff       	call   2110 <signal@plt>
    38b7:	be 01 00 00 00       	mov    $0x1,%esi
    38bc:	bf 1d 00 00 00       	mov    $0x1d,%edi
    38c1:	e8 4a e8 ff ff       	call   2110 <signal@plt>
    38c6:	be 01 00 00 00       	mov    $0x1,%esi
    38cb:	bf 1d 00 00 00       	mov    $0x1d,%edi
    38d0:	e8 3b e8 ff ff       	call   2110 <signal@plt>
    38d5:	ba 00 00 00 00       	mov    $0x0,%edx
    38da:	be 01 00 00 00       	mov    $0x1,%esi
    38df:	bf 02 00 00 00       	mov    $0x2,%edi
    38e4:	e8 f7 e8 ff ff       	call   21e0 <socket@plt>
    38e9:	85 c0                	test   %eax,%eax
    38eb:	0f 88 97 00 00 00    	js     3988 <init_driver+0xfb>
    38f1:	89 c3                	mov    %eax,%ebx
    38f3:	48 8d 3d 6c 0e 00 00 	lea    0xe6c(%rip),%rdi        # 4766 <array.0+0x586>
    38fa:	e8 21 e8 ff ff       	call   2120 <gethostbyname@plt>
    38ff:	48 85 c0             	test   %rax,%rax
    3902:	0f 84 cc 00 00 00    	je     39d4 <init_driver+0x147>
    3908:	49 89 e4             	mov    %rsp,%r12
    390b:	48 c7 04 24 00 00 00 	movq   $0x0,(%rsp)
    3912:	00 
    3913:	48 c7 44 24 08 00 00 	movq   $0x0,0x8(%rsp)
    391a:	00 00 
    391c:	66 c7 04 24 02 00    	movw   $0x2,(%rsp)
    3922:	48 63 50 14          	movslq 0x14(%rax),%rdx
    3926:	48 8b 40 18          	mov    0x18(%rax),%rax
    392a:	48 8d 7c 24 04       	lea    0x4(%rsp),%rdi
    392f:	48 8b 30             	mov    (%rax),%rsi
    3932:	e8 29 e8 ff ff       	call   2160 <memmove@plt>
    3937:	66 c7 44 24 02 2c be 	movw   $0xbe2c,0x2(%rsp)
    393e:	ba 10 00 00 00       	mov    $0x10,%edx
    3943:	4c 89 e6             	mov    %r12,%rsi
    3946:	89 df                	mov    %ebx,%edi
    3948:	e8 63 e8 ff ff       	call   21b0 <connect@plt>
    394d:	85 c0                	test   %eax,%eax
    394f:	0f 88 e7 00 00 00    	js     3a3c <init_driver+0x1af>
    3955:	89 df                	mov    %ebx,%edi
    3957:	e8 74 e7 ff ff       	call   20d0 <close@plt>
    395c:	66 c7 45 00 4f 4b    	movw   $0x4b4f,0x0(%rbp)
    3962:	c6 45 02 00          	movb   $0x0,0x2(%rbp)
    3966:	b8 00 00 00 00       	mov    $0x0,%eax
    396b:	48 8b 54 24 18       	mov    0x18(%rsp),%rdx
    3970:	64 48 2b 14 25 28 00 	sub    %fs:0x28,%rdx
    3977:	00 00 
    3979:	0f 85 e9 00 00 00    	jne    3a68 <init_driver+0x1db>
    397f:	48 83 c4 20          	add    $0x20,%rsp
    3983:	5b                   	pop    %rbx
    3984:	5d                   	pop    %rbp
    3985:	41 5c                	pop    %r12
    3987:	c3                   	ret
    3988:	48 b8 45 72 72 6f 72 	movabs $0x43203a726f727245,%rax
    398f:	3a 20 43 
    3992:	48 ba 6c 69 65 6e 74 	movabs $0x6e7520746e65696c,%rdx
    3999:	20 75 6e 
    399c:	48 89 45 00          	mov    %rax,0x0(%rbp)
    39a0:	48 89 55 08          	mov    %rdx,0x8(%rbp)
    39a4:	48 b8 61 62 6c 65 20 	movabs $0x206f7420656c6261,%rax
    39ab:	74 6f 20 
    39ae:	48 ba 63 72 65 61 74 	movabs $0x7320657461657263,%rdx
    39b5:	65 20 73 
    39b8:	48 89 45 10          	mov    %rax,0x10(%rbp)
    39bc:	48 89 55 18          	mov    %rdx,0x18(%rbp)
    39c0:	c7 45 20 6f 63 6b 65 	movl   $0x656b636f,0x20(%rbp)
    39c7:	66 c7 45 24 74 00    	movw   $0x74,0x24(%rbp)
    39cd:	b8 ff ff ff ff       	mov    $0xffffffff,%eax
    39d2:	eb 97                	jmp    396b <init_driver+0xde>
    39d4:	48 b8 45 72 72 6f 72 	movabs $0x44203a726f727245,%rax
    39db:	3a 20 44 
    39de:	48 ba 4e 53 20 69 73 	movabs $0x6e7520736920534e,%rdx
    39e5:	20 75 6e 
    39e8:	48 89 45 00          	mov    %rax,0x0(%rbp)
    39ec:	48 89 55 08          	mov    %rdx,0x8(%rbp)
    39f0:	48 b8 61 62 6c 65 20 	movabs $0x206f7420656c6261,%rax
    39f7:	74 6f 20 
    39fa:	48 ba 72 65 73 6f 6c 	movabs $0x2065766c6f736572,%rdx
    3a01:	76 65 20 
    3a04:	48 89 45 10          	mov    %rax,0x10(%rbp)
    3a08:	48 89 55 18          	mov    %rdx,0x18(%rbp)
    3a0c:	48 b8 73 65 72 76 65 	movabs $0x6120726576726573,%rax
    3a13:	72 20 61 
    3a16:	48 89 45 20          	mov    %rax,0x20(%rbp)
    3a1a:	c7 45 28 64 64 72 65 	movl   $0x65726464,0x28(%rbp)
    3a21:	66 c7 45 2c 73 73    	movw   $0x7373,0x2c(%rbp)
    3a27:	c6 45 2e 00          	movb   $0x0,0x2e(%rbp)
    3a2b:	89 df                	mov    %ebx,%edi
    3a2d:	e8 9e e6 ff ff       	call   20d0 <close@plt>
    3a32:	b8 ff ff ff ff       	mov    $0xffffffff,%eax
    3a37:	e9 2f ff ff ff       	jmp    396b <init_driver+0xde>
    3a3c:	48 8d 15 23 0d 00 00 	lea    0xd23(%rip),%rdx        # 4766 <array.0+0x586>
    3a43:	48 8d 35 ce 0c 00 00 	lea    0xcce(%rip),%rsi        # 4718 <array.0+0x538>
    3a4a:	48 89 ef             	mov    %rbp,%rdi
    3a4d:	b8 00 00 00 00       	mov    $0x0,%eax
    3a52:	e8 39 e7 ff ff       	call   2190 <sprintf@plt>
    3a57:	89 df                	mov    %ebx,%edi
    3a59:	e8 72 e6 ff ff       	call   20d0 <close@plt>
    3a5e:	b8 ff ff ff ff       	mov    $0xffffffff,%eax
    3a63:	e9 03 ff ff ff       	jmp    396b <init_driver+0xde>
    3a68:	e8 33 e6 ff ff       	call   20a0 <__stack_chk_fail@plt>

0000000000003a6d <driver_post>:
    3a6d:	53                   	push   %rbx
    3a6e:	4c 89 c3             	mov    %r8,%rbx
    3a71:	85 c9                	test   %ecx,%ecx
    3a73:	75 17                	jne    3a8c <driver_post+0x1f>
    3a75:	48 85 ff             	test   %rdi,%rdi
    3a78:	74 05                	je     3a7f <driver_post+0x12>
    3a7a:	80 3f 00             	cmpb   $0x0,(%rdi)
    3a7d:	75 31                	jne    3ab0 <driver_post+0x43>
    3a7f:	66 c7 03 4f 4b       	movw   $0x4b4f,(%rbx)
    3a84:	c6 43 02 00          	movb   $0x0,0x2(%rbx)
    3a88:	89 c8                	mov    %ecx,%eax
    3a8a:	5b                   	pop    %rbx
    3a8b:	c3                   	ret
    3a8c:	48 89 d6             	mov    %rdx,%rsi
    3a8f:	48 8d 3d de 0c 00 00 	lea    0xcde(%rip),%rdi        # 4774 <array.0+0x594>
    3a96:	b8 00 00 00 00       	mov    $0x0,%eax
    3a9b:	e8 10 e6 ff ff       	call   20b0 <printf@plt>
    3aa0:	66 c7 03 4f 4b       	movw   $0x4b4f,(%rbx)
    3aa5:	c6 43 02 00          	movb   $0x0,0x2(%rbx)
    3aa9:	b8 00 00 00 00       	mov    $0x0,%eax
    3aae:	eb da                	jmp    3a8a <driver_post+0x1d>
    3ab0:	41 50                	push   %r8
    3ab2:	52                   	push   %rdx
    3ab3:	4c 8d 0d d1 0c 00 00 	lea    0xcd1(%rip),%r9        # 478b <array.0+0x5ab>
    3aba:	49 89 f0             	mov    %rsi,%r8
    3abd:	48 89 f9             	mov    %rdi,%rcx
    3ac0:	48 8d 15 cc 0c 00 00 	lea    0xccc(%rip),%rdx        # 4793 <array.0+0x5b3>
    3ac7:	be be 2c 00 00       	mov    $0x2cbe,%esi
    3acc:	48 8d 3d 93 0c 00 00 	lea    0xc93(%rip),%rdi        # 4766 <array.0+0x586>
    3ad3:	e8 73 f5 ff ff       	call   304b <submitr>
    3ad8:	48 83 c4 10          	add    $0x10,%rsp
    3adc:	eb ac                	jmp    3a8a <driver_post+0x1d>
    3ade:	66 90                	xchg   %ax,%ax

0000000000003ae0 <__libc_csu_init>:
    3ae0:	f3 0f 1e fa          	endbr64
    3ae4:	41 57                	push   %r15
    3ae6:	4c 8d 3d fb 32 00 00 	lea    0x32fb(%rip),%r15        # 6de8 <__frame_dummy_init_array_entry>
    3aed:	41 56                	push   %r14
    3aef:	49 89 d6             	mov    %rdx,%r14
    3af2:	41 55                	push   %r13
    3af4:	49 89 f5             	mov    %rsi,%r13
    3af7:	41 54                	push   %r12
    3af9:	41 89 fc             	mov    %edi,%r12d
    3afc:	55                   	push   %rbp
    3afd:	48 8d 2d ec 32 00 00 	lea    0x32ec(%rip),%rbp        # 6df0 <__do_global_dtors_aux_fini_array_entry>
    3b04:	53                   	push   %rbx
    3b05:	4c 29 fd             	sub    %r15,%rbp
    3b08:	48 83 ec 08          	sub    $0x8,%rsp
    3b0c:	e8 ef e4 ff ff       	call   2000 <_init>
    3b11:	48 c1 fd 03          	sar    $0x3,%rbp
    3b15:	74 1f                	je     3b36 <__libc_csu_init+0x56>
    3b17:	31 db                	xor    %ebx,%ebx
    3b19:	0f 1f 80 00 00 00 00 	nopl   0x0(%rax)
    3b20:	4c 89 f2             	mov    %r14,%rdx
    3b23:	4c 89 ee             	mov    %r13,%rsi
    3b26:	44 89 e7             	mov    %r12d,%edi
    3b29:	41 ff 14 df          	call   *(%r15,%rbx,8)
    3b2d:	48 83 c3 01          	add    $0x1,%rbx
    3b31:	48 39 dd             	cmp    %rbx,%rbp
    3b34:	75 ea                	jne    3b20 <__libc_csu_init+0x40>
    3b36:	48 83 c4 08          	add    $0x8,%rsp
    3b3a:	5b                   	pop    %rbx
    3b3b:	5d                   	pop    %rbp
    3b3c:	41 5c                	pop    %r12
    3b3e:	41 5d                	pop    %r13
    3b40:	41 5e                	pop    %r14
    3b42:	41 5f                	pop    %r15
    3b44:	c3                   	ret
    3b45:	66 66 2e 0f 1f 84 00 	data16 cs nopw 0x0(%rax,%rax,1)
    3b4c:	00 00 00 00 

0000000000003b50 <__libc_csu_fini>:
    3b50:	f3 0f 1e fa          	endbr64
    3b54:	c3                   	ret

Disassembly of section .fini:

0000000000003b58 <_fini>:
    3b58:	f3 0f 1e fa          	endbr64
    3b5c:	48 83 ec 08          	sub    $0x8,%rsp
    3b60:	48 83 c4 08          	add    $0x8,%rsp
    3b64:	c3                   	ret
