000000000040187a <start_farm>:
  40187a:	b8 01 00 00 00       	mov    $0x1,%eax
  40187f:	c3                   	retq   

0000000000401880 <getval_363>:
  401880:	b8 48 89 c7 c3       	mov    $0xc3c78948,%eax
  401885:	c3                   	retq   

0000000000401886 <setval_442>:
  401886:	c7 07 48 89 c7 c3    	movl   $0xc3c78948,(%rdi)
  40188c:	c3                   	retq   

000000000040188d <setval_266>:
  40188d:	c7 07 48 89 c7 91    	movl   $0x91c78948,(%rdi)
  401893:	c3                   	retq   

0000000000401894 <setval_130>:
  401894:	c7 07 58 90 91 c3    	movl   $0xc3919058,(%rdi)
  40189a:	c3                   	retq   

000000000040189b <setval_319>:
  40189b:	c7 07 58 91 90 c3    	movl   $0xc3909158,(%rdi)
  4018a1:	c3                   	retq   

00000000004018a2 <setval_401>:
  4018a2:	c7 07 0b 58 90 c3    	movl   $0xc390580b,(%rdi)
  4018a8:	c3                   	retq   

00000000004018a9 <getval_368>:
  4018a9:	b8 48 89 c7 c1       	mov    $0xc1c78948,%eax
  4018ae:	c3                   	retq   

00000000004018af <setval_178>:
  4018af:	c7 07 5c 58 90 c3    	movl   $0xc390585c,(%rdi)
  4018b5:	c3                   	retq   

00000000004018b6 <mid_farm>:
  4018b6:	b8 01 00 00 00       	mov    $0x1,%eax
  4018bb:	c3                   	retq   

00000000004018bc <add_xy>:
  4018bc:	48 8d 04 37          	lea    (%rdi,%rsi,1),%rax
  4018c0:	c3                   	retq   

00000000004018c1 <getval_103>:
  4018c1:	b8 48 89 e0 c2       	mov    $0xc2e08948,%eax
  4018c6:	c3                   	retq   

00000000004018c7 <setval_231>:
  4018c7:	c7 07 89 ce 90 c2    	movl   $0xc290ce89,(%rdi)
  4018cd:	c3                   	retq   

00000000004018ce <addval_100>:
  4018ce:	8d 87 c8 48 89 e0    	lea    -0x1f76b738(%rdi),%eax
  4018d4:	c3                   	retq   

00000000004018d5 <getval_271>:
  4018d5:	b8 89 89 c2 92       	mov    $0x92c28989,%eax
  4018da:	c3                   	retq   

00000000004018db <setval_453>:
  4018db:	c7 07 82 89 d1 94    	movl   $0x94d18982,(%rdi)
  4018e1:	c3                   	retq   

00000000004018e2 <addval_133>:
  4018e2:	8d 87 e2 68 89 e0    	lea    -0x1f76971e(%rdi),%eax
  4018e8:	c3                   	retq   

00000000004018e9 <getval_456>:
  4018e9:	b8 88 ce 20 d2       	mov    $0xd220ce88,%eax
  4018ee:	c3                   	retq   

00000000004018ef <setval_333>:
  4018ef:	c7 07 8d c2 20 c0    	movl   $0xc020c28d,(%rdi)
  4018f5:	c3                   	retq   

00000000004018f6 <getval_281>:
  4018f6:	b8 48 89 e0 94       	mov    $0x94e08948,%eax
  4018fb:	c3                   	retq   

00000000004018fc <setval_438>:
  4018fc:	c7 07 48 89 e0 94    	movl   $0x94e08948,(%rdi)
  401902:	c3                   	retq   

0000000000401903 <setval_350>:
  401903:	c7 07 89 c2 38 c9    	movl   $0xc938c289,(%rdi)
  401909:	c3                   	retq   

000000000040190a <getval_409>:
  40190a:	b8 c9 d1 90 c3       	mov    $0xc390d1c9,%eax
  40190f:	c3                   	retq   

0000000000401910 <setval_390>:
  401910:	c7 07 48 89 e0 92    	movl   $0x92e08948,(%rdi)
  401916:	c3                   	retq   

0000000000401917 <addval_301>:
  401917:	8d 87 89 c2 a4 c0    	lea    -0x3f5b3d77(%rdi),%eax
  40191d:	c3                   	retq   

000000000040191e <setval_294>:
  40191e:	c7 07 99 ce c3 7d    	movl   $0x7dc3ce99,(%rdi)
  401924:	c3                   	retq   

0000000000401925 <setval_249>:
  401925:	c7 07 89 ce 90 c7    	movl   $0xc790ce89,(%rdi)
  40192b:	c3                   	retq   

000000000040192c <setval_428>:
  40192c:	c7 07 89 ce c3 f8    	movl   $0xf8c3ce89,(%rdi)
  401932:	c3                   	retq   

0000000000401933 <getval_316>:
  401933:	b8 89 d1 90 c1       	mov    $0xc190d189,%eax
  401938:	c3                   	retq   

0000000000401939 <setval_377>:
  401939:	c7 07 08 89 e0 90    	movl   $0x90e08908,(%rdi)
  40193f:	c3                   	retq   

0000000000401940 <setval_164>:
  401940:	c7 07 89 d1 84 c0    	movl   $0xc084d189,(%rdi)
  401946:	c3                   	retq   

0000000000401947 <getval_313>:
  401947:	b8 89 d1 00 db       	mov    $0xdb00d189,%eax
  40194c:	c3                   	retq   

000000000040194d <getval_221>:
  40194d:	b8 89 ce 28 d2       	mov    $0xd228ce89,%eax
  401952:	c3                   	retq   

0000000000401953 <getval_416>:
  401953:	b8 89 ce 28 c9       	mov    $0xc928ce89,%eax
  401958:	c3                   	retq   

0000000000401959 <addval_216>:
  401959:	8d 87 89 d1 91 90    	lea    -0x6f6e2e77(%rdi),%eax
  40195f:	c3                   	retq   

0000000000401960 <addval_237>:
  401960:	8d 87 89 d1 78 db    	lea    -0x24872e77(%rdi),%eax
  401966:	c3                   	retq   

0000000000401967 <getval_425>:
  401967:	b8 89 d1 20 c9       	mov    $0xc920d189,%eax
  40196c:	c3                   	retq   

000000000040196d <addval_191>:
  40196d:	8d 87 48 89 e0 90    	lea    -0x6f1f76b8(%rdi),%eax
  401973:	c3                   	retq   

0000000000401974 <getval_265>:
  401974:	b8 2c 89 c2 c3       	mov    $0xc3c2892c,%eax
  401979:	c3                   	retq   

000000000040197a <addval_169>:
  40197a:	8d 87 5c 89 c2 c2    	lea    -0x3d3d76a4(%rdi),%eax
  401980:	c3                   	retq   

0000000000401981 <setval_283>:
  401981:	c7 07 89 ce 20 db    	movl   $0xdb20ce89,(%rdi)
  401987:	c3                   	retq   

0000000000401988 <addval_327>:
  401988:	8d 87 89 c2 28 c9    	lea    -0x36d73d77(%rdi),%eax
  40198e:	c3                   	retq   

000000000040198f <addval_111>:
  40198f:	8d 87 89 c2 94 c9    	lea    -0x366b3d77(%rdi),%eax
  401995:	c3                   	retq   

0000000000401996 <end_farm>:
  401996:	b8 01 00 00 00       	mov    $0x1,%eax
  40199b:	c3                   	retq   
  40199c:	0f 1f 40 00          	nopl   0x0(%rax)
