	.section	__TEXT,__text,regular,pure_instructions
	.build_version macos, 13, 0	sdk_version 13, 0
	.globl	_start_farm                     ## -- Begin function start_farm
	.p2align	4, 0x90
_start_farm:                            ## @start_farm
	.cfi_startproc
## %bb.0:
	pushq	%rbp
	.cfi_def_cfa_offset 16
	.cfi_offset %rbp, -16
	movq	%rsp, %rbp
	.cfi_def_cfa_register %rbp
	movl	$1, %eax
	popq	%rbp
	retq
	.cfi_endproc
                                        ## -- End function
	.globl	_getval_363                     ## -- Begin function getval_363
	.p2align	4, 0x90
_getval_363:                            ## @getval_363
	.cfi_startproc
## %bb.0:
	pushq	%rbp
	.cfi_def_cfa_offset 16
	.cfi_offset %rbp, -16
	movq	%rsp, %rbp
	.cfi_def_cfa_register %rbp
	movl	$-1010333368, %eax              ## imm = 0xC3C78948
	popq	%rbp
	retq
	.cfi_endproc
                                        ## -- End function
	.globl	_setval_442                     ## -- Begin function setval_442
	.p2align	4, 0x90
_setval_442:                            ## @setval_442
	.cfi_startproc
## %bb.0:
	pushq	%rbp
	.cfi_def_cfa_offset 16
	.cfi_offset %rbp, -16
	movq	%rsp, %rbp
	.cfi_def_cfa_register %rbp
	movl	$-1010333368, (%rdi)            ## imm = 0xC3C78948
	popq	%rbp
	retq
	.cfi_endproc
                                        ## -- End function
	.globl	_setval_266                     ## -- Begin function setval_266
	.p2align	4, 0x90
_setval_266:                            ## @setval_266
	.cfi_startproc
## %bb.0:
	pushq	%rbp
	.cfi_def_cfa_offset 16
	.cfi_offset %rbp, -16
	movq	%rsp, %rbp
	.cfi_def_cfa_register %rbp
	movl	$-1849194168, (%rdi)            ## imm = 0x91C78948
	popq	%rbp
	retq
	.cfi_endproc
                                        ## -- End function
	.globl	_setval_130                     ## -- Begin function setval_130
	.p2align	4, 0x90
_setval_130:                            ## @setval_130
	.cfi_startproc
## %bb.0:
	pushq	%rbp
	.cfi_def_cfa_offset 16
	.cfi_offset %rbp, -16
	movq	%rsp, %rbp
	.cfi_def_cfa_register %rbp
	movl	$-1013870504, (%rdi)            ## imm = 0xC3919058
	popq	%rbp
	retq
	.cfi_endproc
                                        ## -- End function
	.globl	_setval_319                     ## -- Begin function setval_319
	.p2align	4, 0x90
_setval_319:                            ## @setval_319
	.cfi_startproc
## %bb.0:
	pushq	%rbp
	.cfi_def_cfa_offset 16
	.cfi_offset %rbp, -16
	movq	%rsp, %rbp
	.cfi_def_cfa_register %rbp
	movl	$-1013935784, (%rdi)            ## imm = 0xC3909158
	popq	%rbp
	retq
	.cfi_endproc
                                        ## -- End function
	.globl	_setval_401                     ## -- Begin function setval_401
	.p2align	4, 0x90
_setval_401:                            ## @setval_401
	.cfi_startproc
## %bb.0:
	pushq	%rbp
	.cfi_def_cfa_offset 16
	.cfi_offset %rbp, -16
	movq	%rsp, %rbp
	.cfi_def_cfa_register %rbp
	movl	$-1013950453, (%rdi)            ## imm = 0xC390580B
	popq	%rbp
	retq
	.cfi_endproc
                                        ## -- End function
	.globl	_getval_368                     ## -- Begin function getval_368
	.p2align	4, 0x90
_getval_368:                            ## @getval_368
	.cfi_startproc
## %bb.0:
	pushq	%rbp
	.cfi_def_cfa_offset 16
	.cfi_offset %rbp, -16
	movq	%rsp, %rbp
	.cfi_def_cfa_register %rbp
	movl	$-1043887800, %eax              ## imm = 0xC1C78948
	popq	%rbp
	retq
	.cfi_endproc
                                        ## -- End function
	.globl	_setval_178                     ## -- Begin function setval_178
	.p2align	4, 0x90
_setval_178:                            ## @setval_178
	.cfi_startproc
## %bb.0:
	pushq	%rbp
	.cfi_def_cfa_offset 16
	.cfi_offset %rbp, -16
	movq	%rsp, %rbp
	.cfi_def_cfa_register %rbp
	movl	$-1013950372, (%rdi)            ## imm = 0xC390585C
	popq	%rbp
	retq
	.cfi_endproc
                                        ## -- End function
	.globl	_mid_farm                       ## -- Begin function mid_farm
	.p2align	4, 0x90
_mid_farm:                              ## @mid_farm
	.cfi_startproc
## %bb.0:
	pushq	%rbp
	.cfi_def_cfa_offset 16
	.cfi_offset %rbp, -16
	movq	%rsp, %rbp
	.cfi_def_cfa_register %rbp
	movl	$1, %eax
	popq	%rbp
	retq
	.cfi_endproc
                                        ## -- End function
	.globl	_add_xy                         ## -- Begin function add_xy
	.p2align	4, 0x90
_add_xy:                                ## @add_xy
	.cfi_startproc
## %bb.0:
	pushq	%rbp
	.cfi_def_cfa_offset 16
	.cfi_offset %rbp, -16
	movq	%rsp, %rbp
	.cfi_def_cfa_register %rbp
	leaq	(%rdi,%rsi), %rax
	popq	%rbp
	retq
	.cfi_endproc
                                        ## -- End function
	.globl	_getval_103                     ## -- Begin function getval_103
	.p2align	4, 0x90
_getval_103:                            ## @getval_103
	.cfi_startproc
## %bb.0:
	pushq	%rbp
	.cfi_def_cfa_offset 16
	.cfi_offset %rbp, -16
	movq	%rsp, %rbp
	.cfi_def_cfa_register %rbp
	movl	$-1025472184, %eax              ## imm = 0xC2E08948
	popq	%rbp
	retq
	.cfi_endproc
                                        ## -- End function
	.globl	_setval_231                     ## -- Begin function setval_231
	.p2align	4, 0x90
_setval_231:                            ## @setval_231
	.cfi_startproc
## %bb.0:
	pushq	%rbp
	.cfi_def_cfa_offset 16
	.cfi_offset %rbp, -16
	movq	%rsp, %rbp
	.cfi_def_cfa_register %rbp
	movl	$-1030697335, (%rdi)            ## imm = 0xC290CE89
	popq	%rbp
	retq
	.cfi_endproc
                                        ## -- End function
	.globl	_addval_100                     ## -- Begin function addval_100
	.p2align	4, 0x90
_addval_100:                            ## @addval_100
	.cfi_startproc
## %bb.0:
	pushq	%rbp
	.cfi_def_cfa_offset 16
	.cfi_offset %rbp, -16
	movq	%rsp, %rbp
	.cfi_def_cfa_register %rbp
                                        ## kill: def $edi killed $edi def $rdi
	leal	-527873848(%rdi), %eax
	popq	%rbp
	retq
	.cfi_endproc
                                        ## -- End function
	.globl	_getval_271                     ## -- Begin function getval_271
	.p2align	4, 0x90
_getval_271:                            ## @getval_271
	.cfi_startproc
## %bb.0:
	pushq	%rbp
	.cfi_def_cfa_offset 16
	.cfi_offset %rbp, -16
	movq	%rsp, %rbp
	.cfi_def_cfa_register %rbp
	movl	$-1832744567, %eax              ## imm = 0x92C28989
	popq	%rbp
	retq
	.cfi_endproc
                                        ## -- End function
	.globl	_setval_453                     ## -- Begin function setval_453
	.p2align	4, 0x90
_setval_453:                            ## @setval_453
	.cfi_startproc
## %bb.0:
	pushq	%rbp
	.cfi_def_cfa_offset 16
	.cfi_offset %rbp, -16
	movq	%rsp, %rbp
	.cfi_def_cfa_register %rbp
	movl	$-1798207102, (%rdi)            ## imm = 0x94D18982
	popq	%rbp
	retq
	.cfi_endproc
                                        ## -- End function
	.globl	_addval_133                     ## -- Begin function addval_133
	.p2align	4, 0x90
_addval_133:                            ## @addval_133
	.cfi_startproc
## %bb.0:
	pushq	%rbp
	.cfi_def_cfa_offset 16
	.cfi_offset %rbp, -16
	movq	%rsp, %rbp
	.cfi_def_cfa_register %rbp
                                        ## kill: def $edi killed $edi def $rdi
	leal	-527865630(%rdi), %eax
	popq	%rbp
	retq
	.cfi_endproc
                                        ## -- End function
	.globl	_getval_456                     ## -- Begin function getval_456
	.p2align	4, 0x90
_getval_456:                            ## @getval_456
	.cfi_startproc
## %bb.0:
	pushq	%rbp
	.cfi_def_cfa_offset 16
	.cfi_offset %rbp, -16
	movq	%rsp, %rbp
	.cfi_def_cfa_register %rbp
	movl	$-769601912, %eax               ## imm = 0xD220CE88
	popq	%rbp
	retq
	.cfi_endproc
                                        ## -- End function
	.globl	_setval_333                     ## -- Begin function setval_333
	.p2align	4, 0x90
_setval_333:                            ## @setval_333
	.cfi_startproc
## %bb.0:
	pushq	%rbp
	.cfi_def_cfa_offset 16
	.cfi_offset %rbp, -16
	movq	%rsp, %rbp
	.cfi_def_cfa_register %rbp
	movl	$-1071594867, (%rdi)            ## imm = 0xC020C28D
	popq	%rbp
	retq
	.cfi_endproc
                                        ## -- End function
	.globl	_getval_281                     ## -- Begin function getval_281
	.p2align	4, 0x90
_getval_281:                            ## @getval_281
	.cfi_startproc
## %bb.0:
	pushq	%rbp
	.cfi_def_cfa_offset 16
	.cfi_offset %rbp, -16
	movq	%rsp, %rbp
	.cfi_def_cfa_register %rbp
	movl	$-1797224120, %eax              ## imm = 0x94E08948
	popq	%rbp
	retq
	.cfi_endproc
                                        ## -- End function
	.globl	_setval_438                     ## -- Begin function setval_438
	.p2align	4, 0x90
_setval_438:                            ## @setval_438
	.cfi_startproc
## %bb.0:
	pushq	%rbp
	.cfi_def_cfa_offset 16
	.cfi_offset %rbp, -16
	movq	%rsp, %rbp
	.cfi_def_cfa_register %rbp
	movl	$-1797224120, (%rdi)            ## imm = 0x94E08948
	popq	%rbp
	retq
	.cfi_endproc
                                        ## -- End function
	.globl	_setval_350                     ## -- Begin function setval_350
	.p2align	4, 0x90
_setval_350:                            ## @setval_350
	.cfi_startproc
## %bb.0:
	pushq	%rbp
	.cfi_def_cfa_offset 16
	.cfi_offset %rbp, -16
	movq	%rsp, %rbp
	.cfi_def_cfa_register %rbp
	movl	$-919027063, (%rdi)             ## imm = 0xC938C289
	popq	%rbp
	retq
	.cfi_endproc
                                        ## -- End function
	.globl	_getval_409                     ## -- Begin function getval_409
	.p2align	4, 0x90
_getval_409:                            ## @getval_409
	.cfi_startproc
## %bb.0:
	pushq	%rbp
	.cfi_def_cfa_offset 16
	.cfi_offset %rbp, -16
	movq	%rsp, %rbp
	.cfi_def_cfa_register %rbp
	movl	$-1013919287, %eax              ## imm = 0xC390D1C9
	popq	%rbp
	retq
	.cfi_endproc
                                        ## -- End function
	.globl	_setval_390                     ## -- Begin function setval_390
	.p2align	4, 0x90
_setval_390:                            ## @setval_390
	.cfi_startproc
## %bb.0:
	pushq	%rbp
	.cfi_def_cfa_offset 16
	.cfi_offset %rbp, -16
	movq	%rsp, %rbp
	.cfi_def_cfa_register %rbp
	movl	$-1830778552, (%rdi)            ## imm = 0x92E08948
	popq	%rbp
	retq
	.cfi_endproc
                                        ## -- End function
	.globl	_addval_301                     ## -- Begin function addval_301
	.p2align	4, 0x90
_addval_301:                            ## @addval_301
	.cfi_startproc
## %bb.0:
	pushq	%rbp
	.cfi_def_cfa_offset 16
	.cfi_offset %rbp, -16
	movq	%rsp, %rbp
	.cfi_def_cfa_register %rbp
                                        ## kill: def $edi killed $edi def $rdi
	leal	-1062944119(%rdi), %eax
	popq	%rbp
	retq
	.cfi_endproc
                                        ## -- End function
	.globl	_setval_294                     ## -- Begin function setval_294
	.p2align	4, 0x90
_setval_294:                            ## @setval_294
	.cfi_startproc
## %bb.0:
	pushq	%rbp
	.cfi_def_cfa_offset 16
	.cfi_offset %rbp, -16
	movq	%rsp, %rbp
	.cfi_def_cfa_register %rbp
	movl	$2109984409, (%rdi)             ## imm = 0x7DC3CE99
	popq	%rbp
	retq
	.cfi_endproc
                                        ## -- End function
	.globl	_setval_249                     ## -- Begin function setval_249
	.p2align	4, 0x90
_setval_249:                            ## @setval_249
	.cfi_startproc
## %bb.0:
	pushq	%rbp
	.cfi_def_cfa_offset 16
	.cfi_offset %rbp, -16
	movq	%rsp, %rbp
	.cfi_def_cfa_register %rbp
	movl	$-946811255, (%rdi)             ## imm = 0xC790CE89
	popq	%rbp
	retq
	.cfi_endproc
                                        ## -- End function
	.globl	_setval_428                     ## -- Begin function setval_428
	.p2align	4, 0x90
_setval_428:                            ## @setval_428
	.cfi_startproc
## %bb.0:
	pushq	%rbp
	.cfi_def_cfa_offset 16
	.cfi_offset %rbp, -16
	movq	%rsp, %rbp
	.cfi_def_cfa_register %rbp
	movl	$-121385335, (%rdi)             ## imm = 0xF8C3CE89
	popq	%rbp
	retq
	.cfi_endproc
                                        ## -- End function
	.globl	_getval_316                     ## -- Begin function getval_316
	.p2align	4, 0x90
_getval_316:                            ## @getval_316
	.cfi_startproc
## %bb.0:
	pushq	%rbp
	.cfi_def_cfa_offset 16
	.cfi_offset %rbp, -16
	movq	%rsp, %rbp
	.cfi_def_cfa_register %rbp
	movl	$-1047473783, %eax              ## imm = 0xC190D189
	popq	%rbp
	retq
	.cfi_endproc
                                        ## -- End function
	.globl	_setval_377                     ## -- Begin function setval_377
	.p2align	4, 0x90
_setval_377:                            ## @setval_377
	.cfi_startproc
## %bb.0:
	pushq	%rbp
	.cfi_def_cfa_offset 16
	.cfi_offset %rbp, -16
	movq	%rsp, %rbp
	.cfi_def_cfa_register %rbp
	movl	$-1864333048, (%rdi)            ## imm = 0x90E08908
	popq	%rbp
	retq
	.cfi_endproc
                                        ## -- End function
	.globl	_setval_164                     ## -- Begin function setval_164
	.p2align	4, 0x90
_setval_164:                            ## @setval_164
	.cfi_startproc
## %bb.0:
	pushq	%rbp
	.cfi_def_cfa_offset 16
	.cfi_offset %rbp, -16
	movq	%rsp, %rbp
	.cfi_def_cfa_register %rbp
	movl	$-1065037431, (%rdi)            ## imm = 0xC084D189
	popq	%rbp
	retq
	.cfi_endproc
                                        ## -- End function
	.globl	_getval_313                     ## -- Begin function getval_313
	.p2align	4, 0x90
_getval_313:                            ## @getval_313
	.cfi_startproc
## %bb.0:
	pushq	%rbp
	.cfi_def_cfa_offset 16
	.cfi_offset %rbp, -16
	movq	%rsp, %rbp
	.cfi_def_cfa_register %rbp
	movl	$-620703351, %eax               ## imm = 0xDB00D189
	popq	%rbp
	retq
	.cfi_endproc
                                        ## -- End function
	.globl	_getval_221                     ## -- Begin function getval_221
	.p2align	4, 0x90
_getval_221:                            ## @getval_221
	.cfi_startproc
## %bb.0:
	pushq	%rbp
	.cfi_def_cfa_offset 16
	.cfi_offset %rbp, -16
	movq	%rsp, %rbp
	.cfi_def_cfa_register %rbp
	movl	$-769077623, %eax               ## imm = 0xD228CE89
	popq	%rbp
	retq
	.cfi_endproc
                                        ## -- End function
	.globl	_getval_416                     ## -- Begin function getval_416
	.p2align	4, 0x90
_getval_416:                            ## @getval_416
	.cfi_startproc
## %bb.0:
	pushq	%rbp
	.cfi_def_cfa_offset 16
	.cfi_offset %rbp, -16
	movq	%rsp, %rbp
	.cfi_def_cfa_register %rbp
	movl	$-920072567, %eax               ## imm = 0xC928CE89
	popq	%rbp
	retq
	.cfi_endproc
                                        ## -- End function
	.globl	_addval_216                     ## -- Begin function addval_216
	.p2align	4, 0x90
_addval_216:                            ## @addval_216
	.cfi_startproc
## %bb.0:
	pushq	%rbp
	.cfi_def_cfa_offset 16
	.cfi_offset %rbp, -16
	movq	%rsp, %rbp
	.cfi_def_cfa_register %rbp
                                        ## kill: def $edi killed $edi def $rdi
	leal	-1869491831(%rdi), %eax
	popq	%rbp
	retq
	.cfi_endproc
                                        ## -- End function
	.globl	_addval_237                     ## -- Begin function addval_237
	.p2align	4, 0x90
_addval_237:                            ## @addval_237
	.cfi_startproc
## %bb.0:
	pushq	%rbp
	.cfi_def_cfa_offset 16
	.cfi_offset %rbp, -16
	movq	%rsp, %rbp
	.cfi_def_cfa_register %rbp
                                        ## kill: def $edi killed $edi def $rdi
	leal	-612839031(%rdi), %eax
	popq	%rbp
	retq
	.cfi_endproc
                                        ## -- End function
	.globl	_getval_425                     ## -- Begin function getval_425
	.p2align	4, 0x90
_getval_425:                            ## @getval_425
	.cfi_startproc
## %bb.0:
	pushq	%rbp
	.cfi_def_cfa_offset 16
	.cfi_offset %rbp, -16
	movq	%rsp, %rbp
	.cfi_def_cfa_register %rbp
	movl	$-920596087, %eax               ## imm = 0xC920D189
	popq	%rbp
	retq
	.cfi_endproc
                                        ## -- End function
	.globl	_addval_191                     ## -- Begin function addval_191
	.p2align	4, 0x90
_addval_191:                            ## @addval_191
	.cfi_startproc
## %bb.0:
	pushq	%rbp
	.cfi_def_cfa_offset 16
	.cfi_offset %rbp, -16
	movq	%rsp, %rbp
	.cfi_def_cfa_register %rbp
                                        ## kill: def $edi killed $edi def $rdi
	leal	-1864332984(%rdi), %eax
	popq	%rbp
	retq
	.cfi_endproc
                                        ## -- End function
	.globl	_getval_265                     ## -- Begin function getval_265
	.p2align	4, 0x90
_getval_265:                            ## @getval_265
	.cfi_startproc
## %bb.0:
	pushq	%rbp
	.cfi_def_cfa_offset 16
	.cfi_offset %rbp, -16
	movq	%rsp, %rbp
	.cfi_def_cfa_register %rbp
	movl	$-1010661076, %eax              ## imm = 0xC3C2892C
	popq	%rbp
	retq
	.cfi_endproc
                                        ## -- End function
	.globl	_addval_169                     ## -- Begin function addval_169
	.p2align	4, 0x90
_addval_169:                            ## @addval_169
	.cfi_startproc
## %bb.0:
	pushq	%rbp
	.cfi_def_cfa_offset 16
	.cfi_offset %rbp, -16
	movq	%rsp, %rbp
	.cfi_def_cfa_register %rbp
                                        ## kill: def $edi killed $edi def $rdi
	leal	-1027438244(%rdi), %eax
	popq	%rbp
	retq
	.cfi_endproc
                                        ## -- End function
	.globl	_setval_283                     ## -- Begin function setval_283
	.p2align	4, 0x90
_setval_283:                            ## @setval_283
	.cfi_startproc
## %bb.0:
	pushq	%rbp
	.cfi_def_cfa_offset 16
	.cfi_offset %rbp, -16
	movq	%rsp, %rbp
	.cfi_def_cfa_register %rbp
	movl	$-618606967, (%rdi)             ## imm = 0xDB20CE89
	popq	%rbp
	retq
	.cfi_endproc
                                        ## -- End function
	.globl	_addval_327                     ## -- Begin function addval_327
	.p2align	4, 0x90
_addval_327:                            ## @addval_327
	.cfi_startproc
## %bb.0:
	pushq	%rbp
	.cfi_def_cfa_offset 16
	.cfi_offset %rbp, -16
	movq	%rsp, %rbp
	.cfi_def_cfa_register %rbp
                                        ## kill: def $edi killed $edi def $rdi
	leal	-920075639(%rdi), %eax
	popq	%rbp
	retq
	.cfi_endproc
                                        ## -- End function
	.globl	_addval_111                     ## -- Begin function addval_111
	.p2align	4, 0x90
_addval_111:                            ## @addval_111
	.cfi_startproc
## %bb.0:
	pushq	%rbp
	.cfi_def_cfa_offset 16
	.cfi_offset %rbp, -16
	movq	%rsp, %rbp
	.cfi_def_cfa_register %rbp
                                        ## kill: def $edi killed $edi def $rdi
	leal	-912997751(%rdi), %eax
	popq	%rbp
	retq
	.cfi_endproc
                                        ## -- End function
	.globl	_end_farm                       ## -- Begin function end_farm
	.p2align	4, 0x90
_end_farm:                              ## @end_farm
	.cfi_startproc
## %bb.0:
	pushq	%rbp
	.cfi_def_cfa_offset 16
	.cfi_offset %rbp, -16
	movq	%rsp, %rbp
	.cfi_def_cfa_register %rbp
	movl	$1, %eax
	popq	%rbp
	retq
	.cfi_endproc
                                        ## -- End function
.subsections_via_symbols
